
MainHikingPal.elf:     file format elf32-littlenios2
MainHikingPal.elf
architecture: nios2:r1, flags 0x00000112:
EXEC_P, HAS_SYMS, D_PAGED
start address 0x010001c0

Program Header:
    LOAD off    0x00001000 vaddr 0x01000000 paddr 0x01000000 align 2**12
         filesz 0x00000020 memsz 0x00000020 flags r-x
    LOAD off    0x00001020 vaddr 0x01000020 paddr 0x01000020 align 2**12
         filesz 0x0002cebc memsz 0x0002cebc flags r-x
    LOAD off    0x0002dedc vaddr 0x0102cedc paddr 0x0102ea80 align 2**12
         filesz 0x00001ba4 memsz 0x00001ba4 flags rw-
    LOAD off    0x00030624 vaddr 0x01030624 paddr 0x01030624 align 2**12
         filesz 0x00000000 memsz 0x00000a58 flags rw-

Sections:
Idx Name          Size      VMA       LMA       File off  Algn
  0 .entry        00000020  01000000  01000000  00001000  2**5
                  CONTENTS, ALLOC, LOAD, READONLY, CODE
  1 .exceptions   000001a0  01000020  01000020  00001020  2**2
                  CONTENTS, ALLOC, LOAD, READONLY, CODE
  2 .text         00021350  010001c0  010001c0  000011c0  2**2
                  CONTENTS, ALLOC, LOAD, READONLY, CODE
  3 .rodata       0000b9cc  01021510  01021510  00022510  2**2
                  CONTENTS, ALLOC, LOAD, READONLY, DATA
  4 .rwdata       00001ba4  0102cedc  0102ea80  0002dedc  2**2
                  CONTENTS, ALLOC, LOAD, DATA, SMALL_DATA
  5 .bss          00000a58  01030624  01030624  00030624  2**2
                  ALLOC, SMALL_DATA
  6 .onchip_memory2_0 00000000  00000000  00000000  0002fa80  2**0
                  CONTENTS
  7 .new_sdram_controller_0 00000000  0103107c  0103107c  0002fa80  2**0
                  CONTENTS
  8 .comment      00000023  00000000  00000000  0002fa80  2**0
                  CONTENTS, READONLY
  9 .debug_aranges 00001448  00000000  00000000  0002faa8  2**3
                  CONTENTS, READONLY, DEBUGGING
 10 .debug_info   0003ba58  00000000  00000000  00030ef0  2**0
                  CONTENTS, READONLY, DEBUGGING
 11 .debug_abbrev 0000e932  00000000  00000000  0006c948  2**0
                  CONTENTS, READONLY, DEBUGGING
 12 .debug_line   0001311b  00000000  00000000  0007b27a  2**0
                  CONTENTS, READONLY, DEBUGGING
 13 .debug_frame  00003de0  00000000  00000000  0008e398  2**2
                  CONTENTS, READONLY, DEBUGGING
 14 .debug_str    00005ed9  00000000  00000000  00092178  2**0
                  CONTENTS, READONLY, DEBUGGING
 15 .debug_loc    00025429  00000000  00000000  00098051  2**0
                  CONTENTS, READONLY, DEBUGGING
 16 .debug_alt_sim_info 00000040  00000000  00000000  000bd47c  2**2
                  CONTENTS, READONLY, DEBUGGING
 17 .debug_ranges 00001c68  00000000  00000000  000bd4c0  2**3
                  CONTENTS, READONLY, DEBUGGING
 18 .thread_model 00000003  00000000  00000000  000c4843  2**0
                  CONTENTS, READONLY
 19 .cpu          0000000c  00000000  00000000  000c4846  2**0
                  CONTENTS, READONLY
 20 .qsys         00000001  00000000  00000000  000c4852  2**0
                  CONTENTS, READONLY
 21 .simulation_enabled 00000001  00000000  00000000  000c4853  2**0
                  CONTENTS, READONLY
 22 .stderr_dev   0000000b  00000000  00000000  000c4854  2**0
                  CONTENTS, READONLY
 23 .stdin_dev    0000000b  00000000  00000000  000c485f  2**0
                  CONTENTS, READONLY
 24 .stdout_dev   0000000b  00000000  00000000  000c486a  2**0
                  CONTENTS, READONLY
 25 .sopc_system_name 0000000b  00000000  00000000  000c4875  2**0
                  CONTENTS, READONLY
 26 .quartus_project_dir 00000018  00000000  00000000  000c4880  2**0
                  CONTENTS, READONLY
 27 .jdi          000055b7  00000000  00000000  000c4898  2**0
                  CONTENTS, READONLY
 28 .sopcinfo     00086b05  00000000  00000000  000c9e4f  2**0
                  CONTENTS, READONLY
SYMBOL TABLE:
01000000 l    d  .entry	00000000 .entry
01000020 l    d  .exceptions	00000000 .exceptions
010001c0 l    d  .text	00000000 .text
01021510 l    d  .rodata	00000000 .rodata
0102cedc l    d  .rwdata	00000000 .rwdata
01030624 l    d  .bss	00000000 .bss
00000000 l    d  .onchip_memory2_0	00000000 .onchip_memory2_0
0103107c l    d  .new_sdram_controller_0	00000000 .new_sdram_controller_0
00000000 l    d  .comment	00000000 .comment
00000000 l    d  .debug_aranges	00000000 .debug_aranges
00000000 l    d  .debug_info	00000000 .debug_info
00000000 l    d  .debug_abbrev	00000000 .debug_abbrev
00000000 l    d  .debug_line	00000000 .debug_line
00000000 l    d  .debug_frame	00000000 .debug_frame
00000000 l    d  .debug_str	00000000 .debug_str
00000000 l    d  .debug_loc	00000000 .debug_loc
00000000 l    d  .debug_alt_sim_info	00000000 .debug_alt_sim_info
00000000 l    d  .debug_ranges	00000000 .debug_ranges
00000000 l    df *ABS*	00000000 Z:/CPEN391/Exercises/Main/MainHikingPal_bsp//obj/HAL/src/crt0.o
010001f8 l       .text	00000000 alt_after_alt_main
00000000 l    df *ABS*	00000000 alt_exception_entry.o
01000094 l       .exceptions	00000000 alt_exception_unknown
00000000 l    df *ABS*	00000000 alt_irq_handler.c
00000000 l    df *ABS*	00000000 ColourPalletteData.c
00000000 l    df *ABS*	00000000 HikingPal.c
00000000 l    df *ABS*	00000000 OutGraphicsCharFont.c
00000000 l    df *ABS*	00000000 SDCard_Test_Program.c
00000000 l    df *ABS*	00000000 fonts.c
00000000 l    df *ABS*	00000000 gps.c
01030734 l     O .bss	00000064 buff.4007
01030798 l     O .bss	00000064 buff.4013
00000000 l    df *ABS*	00000000 graphics.c
00000000 l    df *ABS*	00000000 wifi.c
00000000 l    df *ABS*	00000000 w_fmod.c
00000000 l    df *ABS*	00000000 e_fmod.c
0102c22c l     O .rodata	00000010 Zero
00000000 l    df *ABS*	00000000 s_fpclassify.c
00000000 l    df *ABS*	00000000 s_lib_ver.c
00000000 l    df *ABS*	00000000 s_matherr.c
00000000 l    df *ABS*	00000000 libgcc2.c
00000000 l    df *ABS*	00000000 lib2-divmod.c
0100415c l     F .text	0000006c udivmodsi4
00000000 l    df *ABS*	00000000 lib2-mul.c
00000000 l    df *ABS*	00000000 addsf3.c
00000000 l    df *ABS*	00000000 divsf3.c
00000000 l    df *ABS*	00000000 mulsf3.c
00000000 l    df *ABS*	00000000 subsf3.c
00000000 l    df *ABS*	00000000 fixsfsi.c
00000000 l    df *ABS*	00000000 floatsisf.c
00000000 l    df *ABS*	00000000 divdf3.c
00000000 l    df *ABS*	00000000 eqdf2.c
00000000 l    df *ABS*	00000000 muldf3.c
00000000 l    df *ABS*	00000000 fixdfsi.c
00000000 l    df *ABS*	00000000 extendsfdf2.c
00000000 l    df *ABS*	00000000 truncdfsf2.c
00000000 l    df *ABS*	00000000 libgcc2.c
00000000 l    df *ABS*	00000000 libgcc2.c
00000000 l    df *ABS*	00000000 atof.c
00000000 l    df *ABS*	00000000 atoi.c
00000000 l    df *ABS*	00000000 atol.c
00000000 l    df *ABS*	00000000 ctype_.c
0102c43d l     O .rodata	00000180 _ctype_b
00000000 l    df *ABS*	00000000 errno.c
00000000 l    df *ABS*	00000000 exit.c
00000000 l    df *ABS*	00000000 fclose.c
00000000 l    df *ABS*	00000000 fflush.c
00000000 l    df *ABS*	00000000 fgetc.c
00000000 l    df *ABS*	00000000 findfp.c
010071c0 l     F .text	00000008 __fp_lock
010071c8 l     F .text	00000008 __fp_unlock
010071dc l     F .text	000001a0 __sinit.part.1
00000000 l    df *ABS*	00000000 fopen.c
00000000 l    df *ABS*	00000000 fread.c
00000000 l    df *ABS*	00000000 mallocr.c
00000000 l    df *ABS*	00000000 fseek.c
00000000 l    df *ABS*	00000000 fstatr.c
00000000 l    df *ABS*	00000000 fwalk.c
00000000 l    df *ABS*	00000000 getc.c
00000000 l    df *ABS*	00000000 impure.c
0102cedc l     O .rwdata	00000424 impure_data
00000000 l    df *ABS*	00000000 int_errno.c
00000000 l    df *ABS*	00000000 makebuf.c
00000000 l    df *ABS*	00000000 mallocr.c
00000000 l    df *ABS*	00000000 memcpy.c
00000000 l    df *ABS*	00000000 memset.c
00000000 l    df *ABS*	00000000 openr.c
00000000 l    df *ABS*	00000000 perror.c
00000000 l    df *ABS*	00000000 printf.c
00000000 l    df *ABS*	00000000 putchar.c
00000000 l    df *ABS*	00000000 puts.c
00000000 l    df *ABS*	00000000 refill.c
0100925c l     F .text	0000001c lflush
00000000 l    df *ABS*	00000000 rget.c
00000000 l    df *ABS*	00000000 sbrkr.c
00000000 l    df *ABS*	00000000 sprintf.c
00000000 l    df *ABS*	00000000 stdio.c
00000000 l    df *ABS*	00000000 strchr.c
00000000 l    df *ABS*	00000000 strcpy.c
00000000 l    df *ABS*	00000000 strerror.c
00000000 l    df *ABS*	00000000 strlen.c
00000000 l    df *ABS*	00000000 strncpy.c
00000000 l    df *ABS*	00000000 strstr.c
0100a060 l     F .text	000000fc critical_factorization
0100a15c l     F .text	00000374 two_way_long_needle
00000000 l    df *ABS*	00000000 strtod.c
0102d71c l     O .rwdata	00000014 fpi.2638
0102cc0c l     O .rodata	00000028 tinytens
0102d708 l     O .rwdata	00000014 fpinan.2674
00000000 l    df *ABS*	00000000 strtol.c
00000000 l    df *ABS*	00000000 vfprintf.c
0102cc76 l     O .rodata	00000010 zeroes.4166
0102cc86 l     O .rodata	00000010 blanks.4165
00000000 l    df *ABS*	00000000 u_strerr.c
00000000 l    df *ABS*	00000000 vfprintf.c
0102cc96 l     O .rodata	00000010 zeroes.4181
0102cca6 l     O .rodata	00000010 blanks.4180
00000000 l    df *ABS*	00000000 writer.c
00000000 l    df *ABS*	00000000 wsetup.c
00000000 l    df *ABS*	00000000 closer.c
00000000 l    df *ABS*	00000000 __call_atexit.c
00000000 l    df *ABS*	00000000 dtoa.c
01010708 l     F .text	00000228 quorem
00000000 l    df *ABS*	00000000 flags.c
00000000 l    df *ABS*	00000000 fputc.c
00000000 l    df *ABS*	00000000 fputs.c
00000000 l    df *ABS*	00000000 fvwrite.c
00000000 l    df *ABS*	00000000 gdtoa-gethex.c
010126e8 l     F .text	00000100 rshift
00000000 l    df *ABS*	00000000 gdtoa-hexnan.c
00000000 l    df *ABS*	00000000 isattyr.c
00000000 l    df *ABS*	00000000 locale.c
0102d750 l     O .rwdata	00000020 lc_ctype_charset
0102d730 l     O .rwdata	00000020 lc_message_charset
0102d770 l     O .rwdata	00000038 lconv
00000000 l    df *ABS*	00000000 lseekr.c
00000000 l    df *ABS*	00000000 memchr.c
00000000 l    df *ABS*	00000000 memcmp.c
00000000 l    df *ABS*	00000000 memmove.c
00000000 l    df *ABS*	00000000 mprec.c
0102ccf0 l     O .rodata	0000000c p05.2678
00000000 l    df *ABS*	00000000 putc.c
00000000 l    df *ABS*	00000000 readr.c
00000000 l    df *ABS*	00000000 mallocr.c
00000000 l    df *ABS*	00000000 strcmp.c
00000000 l    df *ABS*	00000000 strncmp.c
00000000 l    df *ABS*	00000000 vfprintf.c
0102ce14 l     O .rodata	00000010 zeroes.4110
0102ce24 l     O .rodata	00000010 blanks.4109
00000000 l    df *ABS*	00000000 vfprintf.c
01016450 l     F .text	000000fc __sprint_r.part.0
0102ce44 l     O .rodata	00000010 blanks.4125
0102ce34 l     O .rodata	00000010 zeroes.4126
00000000 l    df *ABS*	00000000 wbuf.c
00000000 l    df *ABS*	00000000 mallocr.c
00000000 l    df *ABS*	00000000 fputwc.c
00000000 l    df *ABS*	00000000 wcrtomb.c
00000000 l    df *ABS*	00000000 wctomb_r.c
00000000 l    df *ABS*	00000000 libgcc2.c
00000000 l    df *ABS*	00000000 libgcc2.c
00000000 l    df *ABS*	00000000 libgcc2.c
00000000 l    df *ABS*	00000000 eqsf2.c
00000000 l    df *ABS*	00000000 gesf2.c
00000000 l    df *ABS*	00000000 lesf2.c
00000000 l    df *ABS*	00000000 adddf3.c
00000000 l    df *ABS*	00000000 gedf2.c
00000000 l    df *ABS*	00000000 ledf2.c
00000000 l    df *ABS*	00000000 subdf3.c
00000000 l    df *ABS*	00000000 floatsidf.c
00000000 l    df *ABS*	00000000 floatunsidf.c
00000000 l    df *ABS*	00000000 alt_close.c
0101a324 l     F .text	00000050 alt_get_errno
00000000 l    df *ABS*	00000000 alt_dev.c
0101a44c l     F .text	0000002c alt_dev_null_write
00000000 l    df *ABS*	00000000 alt_errno.c
00000000 l    df *ABS*	00000000 alt_exit.c
00000000 l    df *ABS*	00000000 alt_fstat.c
0101a4ac l     F .text	00000050 alt_get_errno
00000000 l    df *ABS*	00000000 alt_isatty.c
0101a5b4 l     F .text	00000050 alt_get_errno
00000000 l    df *ABS*	00000000 alt_load.c
0101a6b0 l     F .text	00000064 alt_load_section
00000000 l    df *ABS*	00000000 alt_lseek.c
0101a794 l     F .text	00000050 alt_get_errno
00000000 l    df *ABS*	00000000 alt_main.c
00000000 l    df *ABS*	00000000 alt_malloc_lock.c
00000000 l    df *ABS*	00000000 alt_open.c
0101a978 l     F .text	00000050 alt_get_errno
0101a9c8 l     F .text	000000f4 alt_file_locked
00000000 l    df *ABS*	00000000 alt_read.c
0101ac1c l     F .text	00000050 alt_get_errno
00000000 l    df *ABS*	00000000 alt_release_fd.c
00000000 l    df *ABS*	00000000 alt_sbrk.c
0102ea70 l     O .rwdata	00000004 heap_end
00000000 l    df *ABS*	00000000 alt_usleep.c
00000000 l    df *ABS*	00000000 alt_write.c
0101aed0 l     F .text	00000050 alt_get_errno
00000000 l    df *ABS*	00000000 alt_sys_init.c
0101b020 l     F .text	00000038 alt_dev_reg
0102d950 l     O .rwdata	00001060 jtag_uart_0
0102e9b0 l     O .rwdata	0000002c character_lcd_0
0102e9dc l     O .rwdata	0000002c rs232_0
0102ea08 l     O .rwdata	0000002c Altera_UP_SD_Card_Avalon_Interface_0
00000000 l    df *ABS*	00000000 Altera_UP_SD_Card_Avalon_Interface.c
00000000 l    df *ABS*	00000000 altera_avalon_jtag_uart_fd.c
00000000 l    df *ABS*	00000000 altera_avalon_jtag_uart_init.c
0101f6ac l     F .text	00000208 altera_avalon_jtag_uart_irq
0101f8b4 l     F .text	000000a8 altera_avalon_jtag_uart_timeout
00000000 l    df *ABS*	00000000 altera_avalon_jtag_uart_ioctl.c
00000000 l    df *ABS*	00000000 altera_avalon_jtag_uart_read.c
00000000 l    df *ABS*	00000000 altera_avalon_jtag_uart_write.c
00000000 l    df *ABS*	00000000 altera_avalon_timer_sc.c
0101fed4 l     F .text	00000078 alt_avalon_timer_sc_irq
00000000 l    df *ABS*	00000000 altera_up_avalon_character_lcd.c
00000000 l    df *ABS*	00000000 altera_up_avalon_rs232.c
00000000 l    df *ABS*	00000000 alt_alarm_start.c
00000000 l    df *ABS*	00000000 alt_busy_sleep.c
00000000 l    df *ABS*	00000000 alt_dcache_flush_all.c
00000000 l    df *ABS*	00000000 alt_dev_llist_insert.c
01020ae4 l     F .text	00000050 alt_get_errno
00000000 l    df *ABS*	00000000 alt_do_ctors.c
00000000 l    df *ABS*	00000000 alt_do_dtors.c
00000000 l    df *ABS*	00000000 alt_find_dev.c
00000000 l    df *ABS*	00000000 alt_find_file.c
00000000 l    df *ABS*	00000000 alt_get_fd.c
00000000 l    df *ABS*	00000000 alt_icache_flush_all.c
00000000 l    df *ABS*	00000000 alt_io_redirect.c
01020f24 l     F .text	000000e0 alt_open_fd
00000000 l    df *ABS*	00000000 alt_irq_register.c
00000000 l    df *ABS*	00000000 alt_irq_vars.c
00000000 l    df *ABS*	00000000 alt_tick.c
00000000 l    df *ABS*	00000000 altera_nios2_qsys_irq.c
00000000 l    df *ABS*	00000000 atexit.c
00000000 l    df *ABS*	00000000 __atexit.c
0103062c g     O .bss	00000004 geoidheight
010306fc g     O .bss	00000004 aux_status_register
01009178 g     F .text	00000018 putchar
01014678 g     F .text	00000074 _mprec_log10
01014764 g     F .text	0000008c __any_on
01013358 g     F .text	00000054 _isatty_r
0102ccfc g     O .rodata	00000028 __mprec_tinytens
0101a8c0 g     F .text	00000078 alt_main
01009860 g     F .text	00000090 strcpy
01030630 g     O .bss	00000004 paused
01009190 g     F .text	000000b8 _puts_r
01030f7c g     O .bss	00000100 alt_irq
0101348c g     F .text	0000005c _lseek_r
01002248 g     F .text	00000070 FloatToLongitudeConversion
0102ea80 g       *ABS*	00000000 __flash_rwdata_start
01030634 g     O .bss	00000004 LOCUS_distance
01020040 g     F .text	0000003c alt_up_character_lcd_send_cmd
01012058 g     F .text	00000098 __sflags
01006058 g     F .text	00000084 .hidden __eqdf2
0101b480 g     F .text	000001ac Check_for_Master_Boot_Record
01003920 g     F .text	0000007c ProgramPalette
0103107c g       *ABS*	00000000 __alt_heap_start
010004b8 g     F .text	00000068 OutGraphicsCharFont2
0101f2c4 g     F .text	000001cc alt_up_sd_card_fclose
01009134 g     F .text	0000003c printf
01021d3e g     O .rodata	00000a64 Font10x14
01030638 g     O .bss	00000004 lastline
01017dd0 g     F .text	0000009c _wcrtomb_r
01009698 g     F .text	0000005c __sseek
01007524 g     F .text	00000010 __sinit
01002f20 g     F .text	00000148 GetClosetColour
010179ac g     F .text	00000154 __swbuf_r
010133ac g     F .text	0000007c _setlocale_r
0100737c g     F .text	00000078 __sfmoreglue
010024e4 g     F .text	00000124 getLocationData
0101a958 g     F .text	00000020 __malloc_unlock
010206cc g     F .text	00000090 alt_up_rs232_read_fd
0100a848 g     F .text	00001608 _strtod_r
01004790 g     F .text	00000450 .hidden __divsf3
01030720 g     O .bss	00000004 current_sector_modified
010098f0 g     F .text	000005ec strerror
01006d08 g     F .text	0000000c _atol_r
01003220 g     F .text	00000408 DrawMap2
0101364c g     F .text	0000015c memmove
0100750c g     F .text	00000018 _cleanup
010137a8 g     F .text	000000a8 _Balloc
0100552c g     F .text	00000078 .hidden __fixsfsi
0101de98 g     F .text	000000c4 alt_up_sd_card_is_Present
0101b1c8 g     F .text	0000004c Save_Modified_Sector
01019720 g     F .text	000000e0 .hidden __gtdf2
01006cfc g     F .text	0000000c atol
01006d14 g     F .text	00000010 __errno
0101ffcc g     F .text	00000074 get_DDRAM_addr
01000000 g     F .entry	0000000c __reset
01030718 g     O .bss	00000004 fat_partition_size_in_512_byte_sectors
01000520 g     F .text	00000068 OutGraphicsCharFont3
01000020 g       *ABS*	00000000 __flash_exceptions_start
0100819c g     F .text	00000058 _fstat_r
01003ca4 g     F .text	00000330 __ieee754_fmod
010306cc g     O .bss	00000004 errno
01009494 g     F .text	00000014 __srget
01009614 g     F .text	00000008 __seofread
0103063c g     O .bss	00000004 fixquality
01015280 g     F .text	000011d0 ___svfiprintf_internal_r
010306ec g     O .bss	00000004 alt_argv
01036a34 g       *ABS*	00000000 _gp
010008d0 g     F .text	00000100 ReadFromFile
0101aea0 g     F .text	00000030 usleep
0101e454 g     F .text	00000384 alt_up_sd_card_fopen
01005030 g     F .text	000004fc .hidden __subsf3
0101dfc8 g     F .text	000000d0 alt_up_sd_card_find_first
0103070c g     O .bss	00000004 command_argument_register
01030640 g     O .bss	00000004 inStandbyMode
0102d7d0 g     O .rwdata	00000180 alt_fd_list
01030644 g     O .bss	00000004 LOCUS_serial
01030648 g     O .bss	00000004 format
01008364 g     F .text	00000080 _getc_r
010083e4 g     F .text	00000088 getc
01009170 g     F .text	00000008 _putchar_r
0101d704 g     F .text	00000134 find_first_empty_record_in_root_directory
01020c90 g     F .text	00000090 alt_find_dev
01008dcc g     F .text	00000138 memcpy
010130c4 g     F .text	00000294 __hexnan
010009d0 g     F .text	00000124 Init_GPSCHIP
010201dc g     F .text	00000050 alt_up_character_lcd_write_fd
010071d0 g     F .text	0000000c _cleanup_r
0101a1b0 g     F .text	000000d0 .hidden __floatsidf
010090f4 g     F .text	00000014 perror
01021004 g     F .text	00000078 alt_io_redirect
01019800 g     F .text	000000e0 .hidden __ltdf2
01021510 g       *ABS*	00000000 __DTOR_END__
01020658 g     F .text	00000074 alt_up_rs232_read_data
01009248 g     F .text	00000014 puts
0101d2fc g     F .text	000001b4 find_first_empty_cluster
01003fd4 g     F .text	00000074 __fpclassifyd
010145d4 g     F .text	000000a4 __ratio
0101ddd8 g     F .text	000000c0 alt_up_sd_card_open_dev
01000658 g     F .text	0000017c TestSDCard
01017988 g     F .text	00000024 __vfiprintf_internal
0101fab0 g     F .text	0000020c altera_avalon_jtag_uart_read
00000000  w      *UND*	00000000 malloc
01009108 g     F .text	0000002c _printf_r
00000000 g       *ABS*	00000000 __alt_mem_onchip_memory2_0
01004278 g     F .text	00000008 .hidden __udivsi3
0101a604 g     F .text	000000ac isatty
0102cd4c g     O .rodata	000000c8 __mprec_tens
01026834 g     O .rodata	00005794 Font38x59
01013428 g     F .text	0000000c __locale_charset
01018dcc g     F .text	000000b8 .hidden __lesf2
010029b0 g     F .text	00000090 DrawHorizontalLine
01017fd0 g     F .text	00000074 .hidden __fixunsdfsi
010306d8 g     O .bss	00000004 __malloc_top_pad
0102ea50 g     O .rwdata	00000004 __mb_cur_max
01013458 g     F .text	0000000c _localeconv_r
0103064c g     O .bss	00000004 magvariation
01013bd0 g     F .text	0000003c __i2b
01012244 g     F .text	000004a4 __sfvwrite_r
01002138 g     F .text	00000050 standby
0101c5f4 g     F .text	000000b8 get_dir_divider_location
01000234 g     F .text	0000021c OutGraphicsCharFont
01030650 g     O .bss	00000004 month
010094a8 g     F .text	00000054 _sbrk_r
0101c2c8 g     F .text	000000c0 filename_to_upper_case
0101e7d8 g     F .text	00000084 alt_up_sd_card_set_attributes
0101b62c g     F .text	0000027c Read_File_Record_At_Offset
01014958 g     F .text	0000005c _read_r
0102ea68 g     O .rwdata	00000004 alt_max_fd
010205d4 g     F .text	00000044 alt_up_rs232_check_parity
0101ce84 g     F .text	00000478 find_file_in_directory
01006d5c g     F .text	00000100 _fclose_r
01007098 g     F .text	00000030 fflush
010306d4 g     O .bss	00000004 __malloc_max_sbrked_mem
0102107c g     F .text	000001b0 alt_irq_register
010069d0 g     F .text	00000110 .hidden __extendsfdf2
010070c8 g     F .text	00000070 _fgetc_r
0101df5c g     F .text	0000006c alt_up_sd_card_is_FAT16
01018e84 g     F .text	0000089c .hidden __adddf3
01018ca0 g     F .text	00000074 .hidden __nesf2
0101437c g     F .text	0000011c __b2d
01018684 g     F .text	0000061c .hidden __umoddi3
0101a7e4 g     F .text	000000dc lseek
0102ea38 g     O .rwdata	00000004 __fdlib_version
0102ea40 g     O .rwdata	00000004 _global_impure_ptr
01003a2c g     F .text	00000050 putcharWifi
0101c948 g     F .text	0000053c get_home_directory_cluster_for_file
010149b4 g     F .text	000005a0 _realloc_r
0103107c g       *ABS*	00000000 __bss_end
01030624 g     O .bss	00000004 lineidx
010212c4 g     F .text	00000104 alt_tick
01030914 g     O .bss	00000100 __hexdig
01018044 g     F .text	00000640 .hidden __udivdi3
01017bf4 g     F .text	00000184 _fputwc_r
0102cd24 g     O .rodata	00000028 __mprec_bigtens
010139b4 g     F .text	00000104 __s2b
0101a280 g     F .text	000000a4 .hidden __floatunsidf
01014124 g     F .text	00000060 __mcmp
01030724 g     O .bss	00000004 current_sector_index
01007544 g     F .text	00000018 __fp_lock_all
0100230c g     F .text	00000084 sendCommand
01030654 g     O .bss	00000004 LOCUS_config
01002e84 g     F .text	0000009c MapToColour
0102122c g     F .text	00000098 alt_alarm_stop
010227a2 g     O .rodata	0000140a Font16x27
01001c40 g     F .text	0000009c parseHex
0100c1d8 g     F .text	00000024 strtol
0101b3a0 g     F .text	000000e0 mark_cluster
01030728 g     O .bss	00000004 alt_irq_active
01002484 g     F .text	00000030 GPSCHIPTestForReceivedData
01002188 g     F .text	00000050 wakeup
010000ec g     F .exceptions	000000d4 alt_irq_handler
0102d7a8 g     O .rwdata	00000028 alt_dev_null
0101d838 g     F .text	00000188 convert_filename_to_name_extension
01000450 g     F .text	00000068 OutGraphicsCharFont1
01003a7c g     F .text	00000058 WifiWait
010021d8 g     F .text	00000070 FloatToLatitudeConversion
01020470 g     F .text	00000034 alt_up_character_lcd_cursor_blink_on
01030658 g     O .bss	00000004 minute
01020ac8 g     F .text	0000001c alt_dcache_flush_all
01013ab8 g     F .text	00000068 __hi0bits
010306f8 g     O .bss	00000004 is_sd_card_formated_as_FAT16
0100399c g     F .text	0000004c Wifi_Init
01006948 g     F .text	00000088 .hidden __fixdfsi
0101d4b0 g     F .text	00000254 find_first_empty_record_in_a_subdirectory
0100be50 g     F .text	0000001c strtod
0102ea80 g       *ABS*	00000000 __ram_rwdata_end
0102ea60 g     O .rwdata	00000008 alt_dev_list
010120f0 g     F .text	00000044 _fputc_r
0101af20 g     F .text	00000100 write
010147f0 g     F .text	000000a0 _putc_r
0103071c g     O .bss	00000004 device_pointer
01006cdc g     F .text	00000008 atof
01018d14 g     F .text	000000b8 .hidden __gtsf2
01002a40 g     F .text	00000090 DrawVerticalLine
0102cedc g       *ABS*	00000000 __ram_rodata_end
0101a4fc g     F .text	000000b8 fstat
0102075c g     F .text	00000094 alt_up_rs232_write_fd
01019800 g     F .text	000000e0 .hidden __ledf2
0103065c g     O .bss	00000004 LOCUS_mode
01013e9c g     F .text	00000140 __pow5mult
01016564 g     F .text	00001424 ___vfiprintf_internal_r
010306e4 g     O .bss	00000004 __nlocale_changed
01004280 g     F .text	00000008 .hidden __umodsi3
0103107c g       *ABS*	00000000 end
0102ea34 g     O .rwdata	00000004 mode
01006cf0 g     F .text	0000000c _atoi_r
01008178 g     F .text	00000024 fseek
0101f5f4 g     F .text	000000b8 altera_avalon_jtag_uart_init
01003628 g     F .text	000001a4 DrawMap3
01021510 g       *ABS*	00000000 __CTOR_LIST__
01800000 g       *ABS*	00000000 __alt_stack_pointer
0101ff4c g     F .text	00000080 alt_avalon_timer_sc_init
01006c78 g     F .text	00000064 .hidden __clzsi2
01003b4c g     F .text	00000158 fmod
0101fcbc g     F .text	00000218 altera_avalon_jtag_uart_write
01007534 g     F .text	00000004 __sfp_lock_acquire
010134e8 g     F .text	000000e8 memchr
010200f0 g     F .text	00000078 alt_up_character_lcd_write
0100e274 g     F .text	000020fc ___vfprintf_internal_r
010094fc g     F .text	00000058 _sprintf_r
01007a34 g     F .text	000002f0 _free_r
01013434 g     F .text	00000010 __locale_mb_cur_max
01009420 g     F .text	00000074 __srget_r
01010574 g     F .text	00000194 __call_exitprocs
01002608 g     F .text	0000029c test
010306e0 g     O .bss	00000004 __mlocale_changed
0102ea48 g     O .rwdata	00000004 __malloc_sbrk_base
010001c0 g     F .text	0000003c _start
0103072c g     O .bss	00000004 _alt_tick_rate
0100a4d0 g     F .text	00000378 strstr
0100e26c g     F .text	00000008 _user_strerror
01013fdc g     F .text	00000148 __lshift
01030730 g     O .bss	00000004 _alt_nticks
01000af4 g     F .text	0000114c parseData
0101ac6c g     F .text	00000104 read
01001d70 g     F .text	00000020 newNMEAreceived
0101b08c g     F .text	00000088 alt_sys_init
01020328 g     F .text	00000088 alt_up_character_lcd_shift_display
010055a4 g     F .text	00000134 .hidden __floatsisf
010150b8 g     F .text	000001c8 __ssprint_r
01009028 g     F .text	0000005c _open_r
01030660 g     O .bss	00000004 latitude_fixed
010213fc g     F .text	00000114 __register_exitproc
01030664 g     O .bss	00000004 milliseconds
01014ff8 g     F .text	000000c0 strncmp
01020598 g     F .text	0000003c alt_up_rs232_get_available_space_in_write_FIFO
01013c0c g     F .text	00000290 __multiply
010203b0 g     F .text	0000008c alt_up_character_lcd_erase_pos
0101f95c g     F .text	00000068 altera_avalon_jtag_uart_close
01004288 g     F .text	00000028 .hidden __mulsi3
0102cedc g       *ABS*	00000000 __ram_rwdata_start
01021510 g       *ABS*	00000000 __ram_rodata_start
01009f74 g     F .text	000000ec strncpy
01030668 g     O .bss	00000004 receivedFlag
010307fc g     O .bss	00000028 __malloc_current_mallinfo
01018ca0 g     F .text	00000074 .hidden __eqsf2
01014498 g     F .text	0000013c __d2b
010306f4 g     O .bss	00000004 initialized
0103066c g     O .bss	00000004 hour
0101f490 g     F .text	00000060 altera_avalon_jtag_uart_read_fd
01020e34 g     F .text	000000d4 alt_get_fd
01001db4 g     F .text	00000040 LOCUS_StartLogger
01030a14 g     O .bss	00000014 search_data
01020970 g     F .text	00000158 alt_busy_sleep
01010520 g     F .text	00000054 _close_r
01030670 g     O .bss	00000004 angle
010135d0 g     F .text	0000007c memcmp
0101f550 g     F .text	00000050 altera_avalon_jtag_uart_close_fd
0103107c g       *ABS*	00000000 __alt_stack_base
0101f5a0 g     F .text	00000054 altera_avalon_jtag_uart_ioctl_fd
01001cdc g     F .text	00000094 waitForSentence
010103f0 g     F .text	00000130 __swsetup_r
010056d8 g     F .text	00000980 .hidden __divdf3
010073f4 g     F .text	00000118 __sfp
01030a28 g     O .bss	00000054 boot_sector_data
010146ec g     F .text	00000078 __copybits
0102d300 g     O .rwdata	00000408 __malloc_av_
01007540 g     F .text	00000004 __sinit_lock_release
010060dc g     F .text	0000086c .hidden __muldf3
010095c0 g     F .text	00000054 __sread
010078d0 g     F .text	00000040 fread
010204fc g     F .text	0000005c alt_up_rs232_disable_read_interrupt
01020d20 g     F .text	00000114 alt_find_file
01020b34 g     F .text	000000a4 alt_dev_llist_insert
0101a938 g     F .text	00000020 __malloc_lock
0101adf0 g     F .text	000000b0 sbrk
0100c1fc g     F .text	00002070 ___svfprintf_internal_r
01006e70 g     F .text	00000228 _fflush_r
01017b1c g     F .text	000000d8 _calloc_r
01030674 g     O .bss	00000001 lon
01007664 g     F .text	0000001c fopen
01030824 g     O .bss	00000078 line1
01030624 g       *ABS*	00000000 __bss_start
01002ad0 g     F .text	000000a0 DrawBresenhamLine
01008f04 g     F .text	00000124 memset
01030678 g     O .bss	00000004 longitude
010001fc g     F .text	00000038 main
010306f0 g     O .bss	00000004 alt_envp
010306d0 g     O .bss	00000004 __malloc_max_total_mem
0101f4f0 g     F .text	00000060 altera_avalon_jtag_uart_write_fd
01017b00 g     F .text	0000001c __swbuf
01001df4 g     F .text	00000040 LOCUS_StopLogger
0103067c g     O .bss	00000004 satellites
01030680 g     O .bss	00000004 altitude
01018dcc g     F .text	000000b8 .hidden __ltsf2
0101e85c g     F .text	00000088 alt_up_sd_card_get_attributes
01002920 g     F .text	00000090 ReadAPixel
01007680 g     F .text	00000250 _fread_r
01002390 g     F .text	000000f4 getcharGPSCHIP
0101b114 g     F .text	000000b4 Write_Sector_Data
0101ec74 g     F .text	00000650 alt_up_sd_card_write
010202a0 g     F .text	00000088 alt_up_character_lcd_shift_cursor
010096f4 g     F .text	00000008 __sclose
01004048 g     F .text	00000008 matherr
01800000 g       *ABS*	00000000 __alt_heap_limit
01006e5c g     F .text	00000014 fclose
0100bf70 g     F .text	00000268 _strtol_r
01006ae0 g     F .text	00000198 .hidden __truncdfsf2
01010930 g     F .text	00001728 _dtoa_r
01008624 g     F .text	000007a8 _malloc_r
01017f44 g     F .text	00000030 __ascii_wctomb
010005f0 g     F .text	00000068 OutGraphicsCharFont5
01030684 g     O .bss	00000004 longitude_fixed
0102ea6c g     O .rwdata	00000004 alt_errno
01030688 g     O .bss	00000004 LOCUS_percent
0103068c g     O .bss	00000004 seconds
010081f4 g     F .text	000000b8 _fwalk
01030690 g     O .bss	00000004 LOCUS_type
01030694 g     O .bss	00000004 fix
01014890 g     F .text	000000c8 putc
010041c8 g     F .text	00000054 .hidden __divsi3
010200b0 g     F .text	00000040 alt_up_character_lcd_open_dev
01007910 g     F .text	00000124 _malloc_trim_r
01021510 g       *ABS*	00000000 __CTOR_END__
01004be0 g     F .text	00000450 .hidden __mulsf3
01030700 g     O .bss	00000004 status_register
0102007c g     F .text	00000034 alt_up_character_lcd_init
01014f54 g     F .text	000000a4 strcmp
01002df4 g     F .text	00000090 DrawBresenhamCircle
01030708 g     O .bss	00000004 command_register
010022b8 g     F .text	00000054 putcharGPSCHIP
01021510 g       *ABS*	00000000 __flash_rodata_start
01021510 g       *ABS*	00000000 __DTOR_LIST__
01030698 g     O .bss	00000004 longitudeDegrees
010207f0 g     F .text	00000040 alt_up_rs232_open_dev
010024b4 g     F .text	00000030 GPSCHIPTestForTransmitData
01006058 g     F .text	00000084 .hidden __nedf2
0103069c g     O .bss	00000004 LOCUS_status
0101b058 g     F .text	00000034 alt_irq_init
0101ad70 g     F .text	00000080 alt_release_fd
0101b2ec g     F .text	000000b4 get_cluster_flag
01007138 g     F .text	00000088 fgetc
01009554 g     F .text	0000006c sprintf
0102043c g     F .text	00000034 alt_up_character_lcd_cursor_off
0102c23c g     O .rodata	00000100 .hidden __clz_tab
0101b8a8 g     F .text	0000028c Write_File_Record_At_Offset
010306dc g     O .bss	00000004 _PathLocale
010007d4 g     F .text	000000fc WriteToFile
010306a0 g     O .bss	00000004 latitudeDegrees
0100be6c g     F .text	00000104 strtof
010306a4 g     O .bss	00000004 year
010213e8 g     F .text	00000014 atexit
01018d14 g     F .text	000000b8 .hidden __gesf2
01010394 g     F .text	0000005c _write_r
010306a8 g     O .bss	00000004 LOCUS_speed
01013464 g     F .text	0000001c setlocale
0101bb34 g     F .text	000006a8 Check_for_DOS_FAT
0101d9c0 g     F .text	000002d4 create_file
0102ea44 g     O .rwdata	00000004 _impure_ptr
01030704 g     O .bss	00000004 CSD_register_w0
010306e8 g     O .bss	00000004 alt_argc
010028a4 g     F .text	0000007c WriteAPixel
01020c34 g     F .text	0000005c _do_dtors
01013450 g     F .text	00000008 __locale_cjk_lang
01002b70 g     F .text	000000b0 DrawString1
010306ac g     O .bss	00000004 latitude
01007d24 g     F .text	00000454 _fseek_r
010306b0 g     O .bss	00000004 day
01009278 g     F .text	000001a8 __srefill_r
010306b4 g     O .bss	00000004 LOCUS_records
0103089c g     O .bss	00000078 line2
01021aa4 g     O .rodata	00000299 Font5x7
01000020 g       .exceptions	00000000 alt_irq_entry
010306b8 g     O .bss	00000004 speed
0101431c g     F .text	00000060 __ulp
0100755c g     F .text	00000018 __fp_unlock_all
01012134 g     F .text	00000058 fputc
01002c20 g     F .text	000000b0 DrawString2
0102ea58 g     O .rwdata	00000008 alt_fs_list
0101c388 g     F .text	0000026c check_file_name_for_FAT16_compliance
01030710 g     O .bss	00000004 buffer_memory
010204a4 g     F .text	00000058 alt_up_rs232_enable_read_interrupt
01030628 g     O .bss	00000004 called_Init
01003ad4 g     F .text	00000078 Wifi_SendCommand
01020618 g     F .text	00000040 alt_up_rs232_write_data
01000588 g     F .text	00000068 OutGraphicsCharFont4
01000020 g       *ABS*	00000000 __ram_exceptions_start
01013480 g     F .text	0000000c localeconv
01000000 g       *ABS*	00000000 __alt_mem_new_sdram_controller_0
010127e8 g     F .text	00000084 __hexdig_init
01030714 g     O .bss	00000004 fat_partition_offset_in_512_byte_sectors
0102ea80 g       *ABS*	00000000 _edata
0103107c g       *ABS*	00000000 _end
01030a7c g     O .bss	00000500 active_files
010001c0 g       *ABS*	00000000 __ram_exceptions_end
0101dc94 g     F .text	00000144 copy_file_record_name_to_string
0101f9c4 g     F .text	000000ec altera_avalon_jtag_uart_ioctl
0101218c g     F .text	0000009c _fputs_r
0101c1dc g     F .text	000000ec Look_for_FAT16
0100961c g     F .text	0000007c __swrite
01001e34 g     F .text	00000304 LOCUS_ReadStatus
0102ea4c g     O .rwdata	00000004 __malloc_trim_threshold
01009084 g     F .text	00000070 _perror_r
010213c8 g     F .text	00000020 altera_nios2_qsys_irq_init
01013444 g     F .text	0000000c __locale_msgcharset
01006d24 g     F .text	00000038 exit
0101e098 g     F .text	000003bc alt_up_sd_card_find_next
010082ac g     F .text	000000b8 _fwalk_reent
01014184 g     F .text	00000198 __mdiff
0100421c g     F .text	0000005c .hidden __modsi3
0102ea3c g     O .rwdata	00000004 __ctype_ptr__
0101b214 g     F .text	000000d8 Read_Sector_Data
01800000 g       *ABS*	00000000 __alt_data_end
01000020 g     F .exceptions	00000000 alt_exception
01007538 g     F .text	00000004 __sfp_lock_release
01021510 g     O .rodata	00000400 ColourPalletteData
01020168 g     F .text	00000074 alt_up_character_lcd_string
01006ce4 g     F .text	0000000c atoi
010306bc g     O .bss	00000004 currentline
0102c33c g     O .rodata	00000101 _ctype_
01023bac g     O .rodata	00002c88 Font22x40
01002d54 g     F .text	000000a0 DrawFilledRectangle
01007574 g     F .text	000000f0 _fopen_r
0101a478 g     F .text	00000034 _exit
01020830 g     F .text	00000140 alt_alarm_start
01004050 g     F .text	0000010c .hidden __muldi3
0101e8e4 g     F .text	00000390 alt_up_sd_card_read
0100846c g     F .text	000001b8 __smakebuf_r
01009edc g     F .text	00000098 strlen
0101aabc g     F .text	00000160 open
01019720 g     F .text	000000e0 .hidden __gedf2
0101286c g     F .text	00000858 __gethex
010306c0 g     O .bss	00000004 HDOP
010306c4 g     O .bss	00000001 lat
0102ea54 g     O .rwdata	00000004 __wctomb
01002cd0 g     F .text	00000084 DrawRectangle
0101654c g     F .text	00000018 __sprint_r
01020f08 g     F .text	0000001c alt_icache_flush_all
010096fc g     F .text	00000164 strchr
01012228 g     F .text	0000001c fputs
0102022c g     F .text	00000074 alt_up_character_lcd_set_cursor_pos
0102ea74 g     O .rwdata	00000004 alt_priority_mask
01010370 g     F .text	00000024 __vfprintf_internal
01017f74 g     F .text	0000005c _wctomb_r
010306c5 g     O .bss	00000001 mag
010306c8 g     O .bss	00000004 LOCUS_interval
010198e0 g     F .text	000008d0 .hidden __subdf3
010039e8 g     F .text	00000044 getcharWifi
01013b20 g     F .text	000000b0 __lo0bits
0102ea78 g     O .rwdata	00000008 alt_alarm_list
01020bd8 g     F .text	0000005c _do_ctors
01020558 g     F .text	00000040 alt_up_rs232_get_used_space_in_read_FIFO
01017e6c g     F .text	000000d8 wcrtomb
0101a374 g     F .text	000000d8 close
010042b0 g     F .text	000004e0 .hidden __addsf3
01003068 g     F .text	000001b8 DrawMap
010037cc g     F .text	00000154 TestShapes
01001d90 g     F .text	00000024 lastNMEA
0101a714 g     F .text	00000080 alt_load
0101c6ac g     F .text	0000029c match_file_record_to_name_ext
01017d78 g     F .text	00000058 fputwc
00000000  w      *UND*	00000000 free
0100753c g     F .text	00000004 __sinit_lock_acquire
01013878 g     F .text	0000013c __multadd
01013850 g     F .text	00000028 _Bfree



Disassembly of section .entry:

01000000 <__reset>:
 * Jump to the _start entry point in the .text section if reset code
 * is allowed or if optimizing for RTL simulation.
 */
#if defined(ALT_ALLOW_CODE_AT_RESET) || defined(ALT_SIM_OPTIMIZE)
    /* Jump to the _start entry point in the .text section. */
    movhi r1, %hi(_start)
 1000000:	00404034 	movhi	at,256
    ori r1, r1, %lo(_start)
 1000004:	08407014 	ori	at,at,448
    jmp r1
 1000008:	0800683a 	jmp	at
	...

Disassembly of section .exceptions:

01000020 <alt_exception>:

#else /* ALT_EXCEPTION_STACK disabled */
        /* 
         * Reserve space on normal stack for registers about to be pushed.
         */
        addi  sp, sp, -76
 1000020:	deffed04 	addi	sp,sp,-76
         * documentation for details).
         *
         * Leave a gap in the stack frame at 4(sp) for the muldiv handler to
         * store zero into.
         */
        stw   ra,  0(sp)
 1000024:	dfc00015 	stw	ra,0(sp)
        stw   r1,   8(sp)
 1000028:	d8400215 	stw	at,8(sp)
        stw   r2,  12(sp)
 100002c:	d8800315 	stw	r2,12(sp)
        stw   r3,  16(sp)
 1000030:	d8c00415 	stw	r3,16(sp)
        stw   r4,  20(sp)
 1000034:	d9000515 	stw	r4,20(sp)
        stw   r5,  24(sp)
 1000038:	d9400615 	stw	r5,24(sp)
        stw   r6,  28(sp)
 100003c:	d9800715 	stw	r6,28(sp)
        stw   r7,  32(sp)
 1000040:	d9c00815 	stw	r7,32(sp)
        rdctl r5, estatus   /* Read early to avoid usage stall */
 1000044:	000b307a 	rdctl	r5,estatus
        stw   r8,  36(sp)
 1000048:	da000915 	stw	r8,36(sp)
        stw   r9,  40(sp)
 100004c:	da400a15 	stw	r9,40(sp)
        stw   r10, 44(sp)
 1000050:	da800b15 	stw	r10,44(sp)
        stw   r11, 48(sp)
 1000054:	dac00c15 	stw	r11,48(sp)
        stw   r12, 52(sp)
 1000058:	db000d15 	stw	r12,52(sp)
        stw   r13, 56(sp)
 100005c:	db400e15 	stw	r13,56(sp)
        stw   r14, 60(sp)
 1000060:	db800f15 	stw	r14,60(sp)
        stw   r15, 64(sp)
 1000064:	dbc01015 	stw	r15,64(sp)
        /*
         * ea-4 contains the address of the instruction being executed
         * when the exception occured. For interrupt exceptions, we will
         * will be re-issue the isntruction. Store it in 72(sp)
         */
        stw   r5,  68(sp)  /* estatus */
 1000068:	d9401115 	stw	r5,68(sp)
        addi  r15, ea, -4  /* instruction that caused exception */
 100006c:	ebffff04 	addi	r15,ea,-4
        stw   r15,  72(sp)
 1000070:	dbc01215 	stw	r15,72(sp)
#else
        /*
         * Test to see if the exception was a software exception or caused 
         * by an external interrupt, and vector accordingly.
         */
        rdctl r4, ipending
 1000074:	0009313a 	rdctl	r4,ipending
        andi  r2, r5, 1
 1000078:	2880004c 	andi	r2,r5,1
        beq   r2, zero, .Lnot_irq
 100007c:	10000326 	beq	r2,zero,100008c <alt_exception+0x6c>
        beq   r4, zero, .Lnot_irq
 1000080:	20000226 	beq	r4,zero,100008c <alt_exception+0x6c>
        /*
         * Now that all necessary registers have been preserved, call 
         * alt_irq_handler() to process the interrupts.
         */

        call alt_irq_handler
 1000084:	10000ec0 	call	10000ec <alt_irq_handler>

        .section .exceptions.irqreturn, "xa"

        br    .Lexception_exit
 1000088:	00000306 	br	1000098 <alt_exception_unknown+0x4>
         * upon completion, so we write ea (address of instruction *after*
         * the one where the exception occured) into 72(sp). The actual
         * instruction that caused the exception is written in r2, which these
         * handlers will utilize.
         */
        stw   ea,  72(sp)  /* Don't re-issue */
 100008c:	df401215 	stw	ea,72(sp)
        ldw   r2, -4(ea)   /* Instruction that caused exception */
 1000090:	e8bfff17 	ldw	r2,-4(ea)

01000094 <alt_exception_unknown>:
#ifdef NIOS2_HAS_DEBUG_STUB
       /*
        *  Either tell the user now (if there is a debugger attached) or go into
        *  the debug monitor which will loop until a debugger is attached.
        */
        break
 1000094:	003da03a 	break	0
        /* 
         * Restore the saved registers, so that all general purpose registers 
         * have been restored to their state at the time the interrupt occured.
         */

        ldw   r5,  68(sp)
 1000098:	d9401117 	ldw	r5,68(sp)
        ldw   ea,  72(sp)  /* This becomes the PC once eret is executed */
 100009c:	df401217 	ldw	ea,72(sp)
        ldw   ra,   0(sp)
 10000a0:	dfc00017 	ldw	ra,0(sp)

        wrctl estatus, r5
 10000a4:	2801707a 	wrctl	estatus,r5

        ldw   r1,   8(sp)
 10000a8:	d8400217 	ldw	at,8(sp)
        ldw   r2,  12(sp)
 10000ac:	d8800317 	ldw	r2,12(sp)
        ldw   r3,  16(sp)
 10000b0:	d8c00417 	ldw	r3,16(sp)
        ldw   r4,  20(sp)
 10000b4:	d9000517 	ldw	r4,20(sp)
        ldw   r5,  24(sp)
 10000b8:	d9400617 	ldw	r5,24(sp)
        ldw   r6,  28(sp)
 10000bc:	d9800717 	ldw	r6,28(sp)
        ldw   r7,  32(sp)
 10000c0:	d9c00817 	ldw	r7,32(sp)

#if defined(ALT_EXCEPTION_STACK) && defined(ALT_STACK_CHECK)
        ldw   et, %gprel(alt_exception_old_stack_limit)(gp)
#endif

        ldw   r8,  36(sp)
 10000c4:	da000917 	ldw	r8,36(sp)
        ldw   r9,  40(sp)
 10000c8:	da400a17 	ldw	r9,40(sp)
        ldw   r10, 44(sp)
 10000cc:	da800b17 	ldw	r10,44(sp)
        ldw   r11, 48(sp)
 10000d0:	dac00c17 	ldw	r11,48(sp)
        ldw   r12, 52(sp)
 10000d4:	db000d17 	ldw	r12,52(sp)
        ldw   r13, 56(sp)
 10000d8:	db400e17 	ldw	r13,56(sp)
        ldw   r14, 60(sp)
 10000dc:	db800f17 	ldw	r14,60(sp)
        ldw   r15, 64(sp)
 10000e0:	dbc01017 	ldw	r15,64(sp)
        stw   et, %gprel(alt_stack_limit_value)(gp)
        stw   zero, %gprel(alt_exception_old_stack_limit)(gp)
#endif /* ALT_STACK_CHECK */
        ldw   sp,  76(sp)
#else /* ALT_EXCEPTION_STACK disabled */
        addi  sp, sp, 76
 10000e4:	dec01304 	addi	sp,sp,76

        /*
         * Return to the interrupted instruction.
         */

        eret
 10000e8:	ef80083a 	eret

010000ec <alt_irq_handler>:
 * instruction is present if the macro ALT_CI_INTERRUPT_VECTOR defined.
 */

void alt_irq_handler (void) __attribute__ ((section (".exceptions")));
void alt_irq_handler (void)
{
 10000ec:	defff904 	addi	sp,sp,-28
 10000f0:	dfc00615 	stw	ra,24(sp)
 10000f4:	df000515 	stw	fp,20(sp)
 10000f8:	df000504 	addi	fp,sp,20
  
  /*
   * Notify the operating system that we are at interrupt level.
   */ 
  
  ALT_OS_INT_ENTER();
 10000fc:	0001883a 	nop
#ifndef NIOS2_EIC_PRESENT
static ALT_INLINE alt_u32 ALT_ALWAYS_INLINE alt_irq_pending (void)
{
  alt_u32 active;

  NIOS2_READ_IPENDING (active);
 1000100:	0005313a 	rdctl	r2,ipending
 1000104:	e0bffe15 	stw	r2,-8(fp)

  return active;
 1000108:	e0bffe17 	ldw	r2,-8(fp)
   * Consider the case where the high priority interupt is asserted during
   * the interrupt entry sequence for a lower priority interrupt to see why
   * this is the case.
   */

  active = alt_irq_pending ();
 100010c:	e0bffb15 	stw	r2,-20(fp)

  do
  {
    i = 0;
 1000110:	e03ffd15 	stw	zero,-12(fp)
    mask = 1;
 1000114:	00800044 	movi	r2,1
 1000118:	e0bffc15 	stw	r2,-16(fp)
     * called to clear the interrupt condition.
     */

    do
    {
      if (active & mask)
 100011c:	e0fffb17 	ldw	r3,-20(fp)
 1000120:	e0bffc17 	ldw	r2,-16(fp)
 1000124:	1884703a 	and	r2,r3,r2
 1000128:	10001526 	beq	r2,zero,1000180 <alt_irq_handler+0x94>
      { 
#ifdef ALT_ENHANCED_INTERRUPT_API_PRESENT
        alt_irq[i].handler(alt_irq[i].context); 
#else
        alt_irq[i].handler(alt_irq[i].context, i); 
 100012c:	008040f4 	movhi	r2,259
 1000130:	1083df04 	addi	r2,r2,3964
 1000134:	e0fffd17 	ldw	r3,-12(fp)
 1000138:	180690fa 	slli	r3,r3,3
 100013c:	10c5883a 	add	r2,r2,r3
 1000140:	10c00017 	ldw	r3,0(r2)
 1000144:	008040f4 	movhi	r2,259
 1000148:	1083df04 	addi	r2,r2,3964
 100014c:	e13ffd17 	ldw	r4,-12(fp)
 1000150:	200890fa 	slli	r4,r4,3
 1000154:	1105883a 	add	r2,r2,r4
 1000158:	10800104 	addi	r2,r2,4
 100015c:	10800017 	ldw	r2,0(r2)
 1000160:	1009883a 	mov	r4,r2
 1000164:	e17ffd17 	ldw	r5,-12(fp)
 1000168:	183ee83a 	callr	r3
#endif
        break;
 100016c:	0001883a 	nop
#ifndef NIOS2_EIC_PRESENT
static ALT_INLINE alt_u32 ALT_ALWAYS_INLINE alt_irq_pending (void)
{
  alt_u32 active;

  NIOS2_READ_IPENDING (active);
 1000170:	0005313a 	rdctl	r2,ipending
 1000174:	e0bfff15 	stw	r2,-4(fp)

  return active;
 1000178:	e0bfff17 	ldw	r2,-4(fp)
 100017c:	00000706 	br	100019c <alt_irq_handler+0xb0>
      }
      mask <<= 1;
 1000180:	e0bffc17 	ldw	r2,-16(fp)
 1000184:	1085883a 	add	r2,r2,r2
 1000188:	e0bffc15 	stw	r2,-16(fp)
      i++;
 100018c:	e0bffd17 	ldw	r2,-12(fp)
 1000190:	10800044 	addi	r2,r2,1
 1000194:	e0bffd15 	stw	r2,-12(fp)

    } while (1);
 1000198:	003fe006 	br	100011c <__alt_data_end+0xff80011c>

    active = alt_irq_pending ();
 100019c:	e0bffb15 	stw	r2,-20(fp)
    
  } while (active);
 10001a0:	e0bffb17 	ldw	r2,-20(fp)
 10001a4:	103fda1e 	bne	r2,zero,1000110 <__alt_data_end+0xff800110>

  /*
   * Notify the operating system that interrupt processing is complete.
   */ 

  ALT_OS_INT_EXIT();
 10001a8:	0001883a 	nop
}
 10001ac:	e037883a 	mov	sp,fp
 10001b0:	dfc00117 	ldw	ra,4(sp)
 10001b4:	df000017 	ldw	fp,0(sp)
 10001b8:	dec00204 	addi	sp,sp,8
 10001bc:	f800283a 	ret

Disassembly of section .text:

010001c0 <_start>:

    /*
     * Now that the caches are initialized, set up the stack pointer and global pointer.
     * The values provided by the linker are assumed to be correctly aligned.
     */
    movhi sp, %hi(__alt_stack_pointer)
 10001c0:	06c06034 	movhi	sp,384
    ori sp, sp, %lo(__alt_stack_pointer)
 10001c4:	dec00014 	ori	sp,sp,0
    movhi gp, %hi(_gp)
 10001c8:	068040f4 	movhi	gp,259
    ori gp, gp, %lo(_gp)
 10001cc:	d69a8d14 	ori	gp,gp,27188
 */
#ifndef ALT_SIM_OPTIMIZE
    /* Log that the BSS is about to be cleared. */
    ALT_LOG_PUTS(alt_log_msg_bss)

    movhi r2, %hi(__bss_start)
 10001d0:	008040f4 	movhi	r2,259
    ori r2, r2, %lo(__bss_start)
 10001d4:	10818914 	ori	r2,r2,1572

    movhi r3, %hi(__bss_end)
 10001d8:	00c040f4 	movhi	r3,259
    ori r3, r3, %lo(__bss_end)
 10001dc:	18c41f14 	ori	r3,r3,4220

    beq r2, r3, 1f
 10001e0:	10c00326 	beq	r2,r3,10001f0 <_start+0x30>

0:
    stw zero, (r2)
 10001e4:	10000015 	stw	zero,0(r2)
    addi r2, r2, 4
 10001e8:	10800104 	addi	r2,r2,4
    bltu r2, r3, 0b
 10001ec:	10fffd36 	bltu	r2,r3,10001e4 <__alt_data_end+0xff8001e4>
     * section aren't defined until alt_load() has been called).
     */
    mov   et, zero
#endif

    call alt_load
 10001f0:	101a7140 	call	101a714 <alt_load>

    /* Log that alt_main is about to be called. */
    ALT_LOG_PUTS(alt_log_msg_alt_main)

    /* Call the C entry point. It should never return. */
    call alt_main
 10001f4:	101a8c00 	call	101a8c0 <alt_main>

010001f8 <alt_after_alt_main>:

    /* Wait in infinite loop in case alt_main does return. */
alt_after_alt_main:
    br alt_after_alt_main
 10001f8:	003fff06 	br	10001f8 <__alt_data_end+0xff8001f8>

010001fc <main>:
#include "SDCard_Test_Program.h"
#include "gps.h"
#include "wifi.h"

int main()
{
 10001fc:	defffe04 	addi	sp,sp,-8
 1000200:	dfc00115 	stw	ra,4(sp)
 1000204:	df000015 	stw	fp,0(sp)
 1000208:	d839883a 	mov	fp,sp
  printf("Hello from Nios II!\n");
 100020c:	010040b4 	movhi	r4,258
 1000210:	21064404 	addi	r4,r4,6416
 1000214:	10092480 	call	1009248 <puts>
  //TestShapes();
  //DrawFilledRectangle(0, 800, 0, 480, 0);
  //getLocationData();
  TestSDCard();
 1000218:	10006580 	call	1000658 <TestSDCard>

  //Wifi_Init();

  return 0;
 100021c:	0005883a 	mov	r2,zero
}
 1000220:	e037883a 	mov	sp,fp
 1000224:	dfc00117 	ldw	ra,4(sp)
 1000228:	df000017 	ldw	fp,0(sp)
 100022c:	dec00204 	addi	sp,sp,8
 1000230:	f800283a 	ret

01000234 <OutGraphicsCharFont>:
extern const unsigned short int Font10x14[][14];
extern const unsigned char Font16x27[];
extern const unsigned char Font22x40[];
extern const unsigned char Font38x59[];

void OutGraphicsCharFont(int x, int y, int fontcolour, int backgroundcolour, int c, int Erase, int fontWidth, int fontHeight){
 1000234:	defff204 	addi	sp,sp,-56
 1000238:	dfc00d15 	stw	ra,52(sp)
 100023c:	df000c15 	stw	fp,48(sp)
 1000240:	ddc00b15 	stw	r23,44(sp)
 1000244:	dd800a15 	stw	r22,40(sp)
 1000248:	dd400915 	stw	r21,36(sp)
 100024c:	dd000815 	stw	r20,32(sp)
 1000250:	dcc00715 	stw	r19,28(sp)
 1000254:	dc800615 	stw	r18,24(sp)
 1000258:	dc400515 	stw	r17,20(sp)
 100025c:	dc000415 	stw	r16,16(sp)
 1000260:	df000c04 	addi	fp,sp,48
 1000264:	e13ff415 	stw	r4,-48(fp)
 1000268:	e17ff515 	stw	r5,-44(fp)
 100026c:	e1bff615 	stw	r6,-40(fp)
 1000270:	e1fff715 	stw	r7,-36(fp)

	register int row, column, theX = x, theY = y ;
 1000274:	e57ff417 	ldw	r21,-48(fp)
 1000278:	e5bff517 	ldw	r22,-44(fp)
	register int pixels ;
	register char theColour = fontcolour  ;
 100027c:	e0bff617 	ldw	r2,-40(fp)
 1000280:	102f883a 	mov	r23,r2
	register int BitMask, theC = c ;
 1000284:	e4800217 	ldw	r18,8(fp)

	// if x,y coord off edge of screen don't bother
	// XRES and YRES are #defined to be 800 and 480 respectively
    if(((short)(x) > (short)(XRES-1)) || ((short)(y) > (short)(YRES-1)))
 1000288:	e0bff417 	ldw	r2,-48(fp)
 100028c:	10bfffcc 	andi	r2,r2,65535
 1000290:	10a0001c 	xori	r2,r2,32768
 1000294:	10a00004 	addi	r2,r2,-32768
 1000298:	1080c808 	cmpgei	r2,r2,800
 100029c:	1000061e 	bne	r2,zero,10002b8 <OutGraphicsCharFont+0x84>
 10002a0:	e0bff517 	ldw	r2,-44(fp)
 10002a4:	10bfffcc 	andi	r2,r2,65535
 10002a8:	10a0001c 	xori	r2,r2,32768
 10002ac:	10a00004 	addi	r2,r2,-32768
 10002b0:	10807810 	cmplti	r2,r2,480
 10002b4:	1000011e 	bne	r2,zero,10002bc <OutGraphicsCharFont+0x88>
        return ;
 10002b8:	00005806 	br	100041c <OutGraphicsCharFont+0x1e8>

	// if printable character subtract hex 20
	if(((short)(theC) >= (short)(' ')) && ((short)(theC) <= (short)('~'))) {
 10002bc:	9005883a 	mov	r2,r18
 10002c0:	10bfffcc 	andi	r2,r2,65535
 10002c4:	10a0001c 	xori	r2,r2,32768
 10002c8:	10a00004 	addi	r2,r2,-32768
 10002cc:	10800810 	cmplti	r2,r2,32
 10002d0:	1000521e 	bne	r2,zero,100041c <OutGraphicsCharFont+0x1e8>
 10002d4:	9005883a 	mov	r2,r18
 10002d8:	10bfffcc 	andi	r2,r2,65535
 10002dc:	10a0001c 	xori	r2,r2,32768
 10002e0:	10a00004 	addi	r2,r2,-32768
 10002e4:	10801fc8 	cmpgei	r2,r2,127
 10002e8:	10004c1e 	bne	r2,zero,100041c <OutGraphicsCharFont+0x1e8>
		theC = theC - 0x20 ;
 10002ec:	94bff804 	addi	r18,r18,-32
		for(row = 0; (char)(row) < (char)(fontHeight); row ++)	{
 10002f0:	0021883a 	mov	r16,zero
 10002f4:	00004006 	br	10003f8 <OutGraphicsCharFont+0x1c4>

			// get the bit pattern for row 0 of the character from the software font

			if (fontWidth == 5){
 10002f8:	e0800417 	ldw	r2,16(fp)
 10002fc:	10800158 	cmpnei	r2,r2,5
 1000300:	10000a1e 	bne	r2,zero,100032c <OutGraphicsCharFont+0xf8>
				pixels = Font5x7[theC][row];
 1000304:	044040b4 	movhi	r17,258
 1000308:	8c46a904 	addi	r17,r17,6820
 100030c:	9009883a 	mov	r4,r18
 1000310:	014001c4 	movi	r5,7
 1000314:	10042880 	call	1004288 <__mulsi3>
 1000318:	1405883a 	add	r2,r2,r16
 100031c:	8885883a 	add	r2,r17,r2
 1000320:	10800003 	ldbu	r2,0(r2)
 1000324:	15003fcc 	andi	r20,r2,255
 1000328:	00000d06 	br	1000360 <OutGraphicsCharFont+0x12c>
			}
			else if (fontWidth == 10){
 100032c:	e0800417 	ldw	r2,16(fp)
 1000330:	10800298 	cmpnei	r2,r2,10
 1000334:	10000a1e 	bne	r2,zero,1000360 <OutGraphicsCharFont+0x12c>
				pixels = Font10x14[theC][row];
 1000338:	044040b4 	movhi	r17,258
 100033c:	8c474f84 	addi	r17,r17,7486
 1000340:	9009883a 	mov	r4,r18
 1000344:	01400384 	movi	r5,14
 1000348:	10042880 	call	1004288 <__mulsi3>
 100034c:	1405883a 	add	r2,r2,r16
 1000350:	1085883a 	add	r2,r2,r2
 1000354:	8885883a 	add	r2,r17,r2
 1000358:	1080000b 	ldhu	r2,0(r2)
 100035c:	153fffcc 	andi	r20,r2,65535
			}

			BitMask =  1 << fontWidth - 1;
 1000360:	e0800417 	ldw	r2,16(fp)
 1000364:	10bfffc4 	addi	r2,r2,-1
 1000368:	00c00044 	movi	r3,1
 100036c:	18a6983a 	sll	r19,r3,r2

			for(column = 0; (char)(column) < (char)(fontWidth); column ++)	{
 1000370:	0023883a 	mov	r17,zero
 1000374:	00001606 	br	10003d0 <OutGraphicsCharFont+0x19c>

				// if a pixel in the character display it
				if((pixels & BitMask))
 1000378:	a4c4703a 	and	r2,r20,r19
 100037c:	10000926 	beq	r2,zero,10003a4 <OutGraphicsCharFont+0x170>
					WriteAPixel(theX+column, theY+row, theColour) ;
 1000380:	ac49883a 	add	r4,r21,r17
 1000384:	b407883a 	add	r3,r22,r16
 1000388:	b8803fcc 	andi	r2,r23,255
 100038c:	1080201c 	xori	r2,r2,128
 1000390:	10bfe004 	addi	r2,r2,-128
 1000394:	180b883a 	mov	r5,r3
 1000398:	100d883a 	mov	r6,r2
 100039c:	10028a40 	call	10028a4 <WriteAPixel>
 10003a0:	00000906 	br	10003c8 <OutGraphicsCharFont+0x194>

				else {
					if(Erase == TRUE)
 10003a4:	e0800317 	ldw	r2,12(fp)
 10003a8:	10800058 	cmpnei	r2,r2,1
 10003ac:	1000061e 	bne	r2,zero,10003c8 <OutGraphicsCharFont+0x194>

				// if pixel is part of background (not part of character)
				// erase the background to value of variable BackGroundColour

						WriteAPixel(theX+column, theY+row, backgroundcolour) ;
 10003b0:	ac47883a 	add	r3,r21,r17
 10003b4:	b405883a 	add	r2,r22,r16
 10003b8:	1809883a 	mov	r4,r3
 10003bc:	100b883a 	mov	r5,r2
 10003c0:	e1bff717 	ldw	r6,-36(fp)
 10003c4:	10028a40 	call	10028a4 <WriteAPixel>
				}
				BitMask = BitMask >> 1 ;
 10003c8:	9827d07a 	srai	r19,r19,1
				pixels = Font10x14[theC][row];
			}

			BitMask =  1 << fontWidth - 1;

			for(column = 0; (char)(column) < (char)(fontWidth); column ++)	{
 10003cc:	8c400044 	addi	r17,r17,1
 10003d0:	8807883a 	mov	r3,r17
 10003d4:	e0800417 	ldw	r2,16(fp)
 10003d8:	18c03fcc 	andi	r3,r3,255
 10003dc:	18c0201c 	xori	r3,r3,128
 10003e0:	18ffe004 	addi	r3,r3,-128
 10003e4:	10803fcc 	andi	r2,r2,255
 10003e8:	1080201c 	xori	r2,r2,128
 10003ec:	10bfe004 	addi	r2,r2,-128
 10003f0:	18bfe116 	blt	r3,r2,1000378 <__alt_data_end+0xff800378>
        return ;

	// if printable character subtract hex 20
	if(((short)(theC) >= (short)(' ')) && ((short)(theC) <= (short)('~'))) {
		theC = theC - 0x20 ;
		for(row = 0; (char)(row) < (char)(fontHeight); row ++)	{
 10003f4:	84000044 	addi	r16,r16,1
 10003f8:	8007883a 	mov	r3,r16
 10003fc:	e0800517 	ldw	r2,20(fp)
 1000400:	18c03fcc 	andi	r3,r3,255
 1000404:	18c0201c 	xori	r3,r3,128
 1000408:	18ffe004 	addi	r3,r3,-128
 100040c:	10803fcc 	andi	r2,r2,255
 1000410:	1080201c 	xori	r2,r2,128
 1000414:	10bfe004 	addi	r2,r2,-128
 1000418:	18bfb716 	blt	r3,r2,10002f8 <__alt_data_end+0xff8002f8>
				}
				BitMask = BitMask >> 1 ;
			}
		}
	}
}
 100041c:	e6fff804 	addi	sp,fp,-32
 1000420:	dfc00917 	ldw	ra,36(sp)
 1000424:	df000817 	ldw	fp,32(sp)
 1000428:	ddc00717 	ldw	r23,28(sp)
 100042c:	dd800617 	ldw	r22,24(sp)
 1000430:	dd400517 	ldw	r21,20(sp)
 1000434:	dd000417 	ldw	r20,16(sp)
 1000438:	dcc00317 	ldw	r19,12(sp)
 100043c:	dc800217 	ldw	r18,8(sp)
 1000440:	dc400117 	ldw	r17,4(sp)
 1000444:	dc000017 	ldw	r16,0(sp)
 1000448:	dec00a04 	addi	sp,sp,40
 100044c:	f800283a 	ret

01000450 <OutGraphicsCharFont1>:

void OutGraphicsCharFont1(int x, int y, int fontcolour, int backgroundcolour, int c, int Erase)
{
 1000450:	defff604 	addi	sp,sp,-40
 1000454:	dfc00915 	stw	ra,36(sp)
 1000458:	df000815 	stw	fp,32(sp)
 100045c:	df000804 	addi	fp,sp,32
 1000460:	e13ffc15 	stw	r4,-16(fp)
 1000464:	e17ffd15 	stw	r5,-12(fp)
 1000468:	e1bffe15 	stw	r6,-8(fp)
 100046c:	e1ffff15 	stw	r7,-4(fp)
	OutGraphicsCharFont(x, y, fontcolour, backgroundcolour, c, Erase, 5, 7);
 1000470:	e0800217 	ldw	r2,8(fp)
 1000474:	d8800015 	stw	r2,0(sp)
 1000478:	e0800317 	ldw	r2,12(fp)
 100047c:	d8800115 	stw	r2,4(sp)
 1000480:	00800144 	movi	r2,5
 1000484:	d8800215 	stw	r2,8(sp)
 1000488:	008001c4 	movi	r2,7
 100048c:	d8800315 	stw	r2,12(sp)
 1000490:	e13ffc17 	ldw	r4,-16(fp)
 1000494:	e17ffd17 	ldw	r5,-12(fp)
 1000498:	e1bffe17 	ldw	r6,-8(fp)
 100049c:	e1ffff17 	ldw	r7,-4(fp)
 10004a0:	10002340 	call	1000234 <OutGraphicsCharFont>
}
 10004a4:	e037883a 	mov	sp,fp
 10004a8:	dfc00117 	ldw	ra,4(sp)
 10004ac:	df000017 	ldw	fp,0(sp)
 10004b0:	dec00204 	addi	sp,sp,8
 10004b4:	f800283a 	ret

010004b8 <OutGraphicsCharFont2>:

void OutGraphicsCharFont2(int x, int y, int fontcolour, int backgroundcolour, int c, int Erase)
{
 10004b8:	defff604 	addi	sp,sp,-40
 10004bc:	dfc00915 	stw	ra,36(sp)
 10004c0:	df000815 	stw	fp,32(sp)
 10004c4:	df000804 	addi	fp,sp,32
 10004c8:	e13ffc15 	stw	r4,-16(fp)
 10004cc:	e17ffd15 	stw	r5,-12(fp)
 10004d0:	e1bffe15 	stw	r6,-8(fp)
 10004d4:	e1ffff15 	stw	r7,-4(fp)
	OutGraphicsCharFont(x, y, fontcolour, backgroundcolour, c, Erase, 10, 14);
 10004d8:	e0800217 	ldw	r2,8(fp)
 10004dc:	d8800015 	stw	r2,0(sp)
 10004e0:	e0800317 	ldw	r2,12(fp)
 10004e4:	d8800115 	stw	r2,4(sp)
 10004e8:	00800284 	movi	r2,10
 10004ec:	d8800215 	stw	r2,8(sp)
 10004f0:	00800384 	movi	r2,14
 10004f4:	d8800315 	stw	r2,12(sp)
 10004f8:	e13ffc17 	ldw	r4,-16(fp)
 10004fc:	e17ffd17 	ldw	r5,-12(fp)
 1000500:	e1bffe17 	ldw	r6,-8(fp)
 1000504:	e1ffff17 	ldw	r7,-4(fp)
 1000508:	10002340 	call	1000234 <OutGraphicsCharFont>
}
 100050c:	e037883a 	mov	sp,fp
 1000510:	dfc00117 	ldw	ra,4(sp)
 1000514:	df000017 	ldw	fp,0(sp)
 1000518:	dec00204 	addi	sp,sp,8
 100051c:	f800283a 	ret

01000520 <OutGraphicsCharFont3>:

void OutGraphicsCharFont3(int x, int y, int fontcolour, int backgroundcolour, int c, int Erase)
{
 1000520:	defff604 	addi	sp,sp,-40
 1000524:	dfc00915 	stw	ra,36(sp)
 1000528:	df000815 	stw	fp,32(sp)
 100052c:	df000804 	addi	fp,sp,32
 1000530:	e13ffc15 	stw	r4,-16(fp)
 1000534:	e17ffd15 	stw	r5,-12(fp)
 1000538:	e1bffe15 	stw	r6,-8(fp)
 100053c:	e1ffff15 	stw	r7,-4(fp)
	OutGraphicsCharFont(x, y, fontcolour, backgroundcolour, c, Erase, 16, 27);
 1000540:	e0800217 	ldw	r2,8(fp)
 1000544:	d8800015 	stw	r2,0(sp)
 1000548:	e0800317 	ldw	r2,12(fp)
 100054c:	d8800115 	stw	r2,4(sp)
 1000550:	00800404 	movi	r2,16
 1000554:	d8800215 	stw	r2,8(sp)
 1000558:	008006c4 	movi	r2,27
 100055c:	d8800315 	stw	r2,12(sp)
 1000560:	e13ffc17 	ldw	r4,-16(fp)
 1000564:	e17ffd17 	ldw	r5,-12(fp)
 1000568:	e1bffe17 	ldw	r6,-8(fp)
 100056c:	e1ffff17 	ldw	r7,-4(fp)
 1000570:	10002340 	call	1000234 <OutGraphicsCharFont>
}
 1000574:	e037883a 	mov	sp,fp
 1000578:	dfc00117 	ldw	ra,4(sp)
 100057c:	df000017 	ldw	fp,0(sp)
 1000580:	dec00204 	addi	sp,sp,8
 1000584:	f800283a 	ret

01000588 <OutGraphicsCharFont4>:

void OutGraphicsCharFont4(int x, int y, int fontcolour, int backgroundcolour, int c, int Erase)
{
 1000588:	defff604 	addi	sp,sp,-40
 100058c:	dfc00915 	stw	ra,36(sp)
 1000590:	df000815 	stw	fp,32(sp)
 1000594:	df000804 	addi	fp,sp,32
 1000598:	e13ffc15 	stw	r4,-16(fp)
 100059c:	e17ffd15 	stw	r5,-12(fp)
 10005a0:	e1bffe15 	stw	r6,-8(fp)
 10005a4:	e1ffff15 	stw	r7,-4(fp)
	OutGraphicsCharFont(x, y, fontcolour, backgroundcolour, c, Erase, 22, 40);
 10005a8:	e0800217 	ldw	r2,8(fp)
 10005ac:	d8800015 	stw	r2,0(sp)
 10005b0:	e0800317 	ldw	r2,12(fp)
 10005b4:	d8800115 	stw	r2,4(sp)
 10005b8:	00800584 	movi	r2,22
 10005bc:	d8800215 	stw	r2,8(sp)
 10005c0:	00800a04 	movi	r2,40
 10005c4:	d8800315 	stw	r2,12(sp)
 10005c8:	e13ffc17 	ldw	r4,-16(fp)
 10005cc:	e17ffd17 	ldw	r5,-12(fp)
 10005d0:	e1bffe17 	ldw	r6,-8(fp)
 10005d4:	e1ffff17 	ldw	r7,-4(fp)
 10005d8:	10002340 	call	1000234 <OutGraphicsCharFont>
}
 10005dc:	e037883a 	mov	sp,fp
 10005e0:	dfc00117 	ldw	ra,4(sp)
 10005e4:	df000017 	ldw	fp,0(sp)
 10005e8:	dec00204 	addi	sp,sp,8
 10005ec:	f800283a 	ret

010005f0 <OutGraphicsCharFont5>:

void OutGraphicsCharFont5(int x, int y, int fontcolour, int backgroundcolour, int c, int Erase)
{
 10005f0:	defff604 	addi	sp,sp,-40
 10005f4:	dfc00915 	stw	ra,36(sp)
 10005f8:	df000815 	stw	fp,32(sp)
 10005fc:	df000804 	addi	fp,sp,32
 1000600:	e13ffc15 	stw	r4,-16(fp)
 1000604:	e17ffd15 	stw	r5,-12(fp)
 1000608:	e1bffe15 	stw	r6,-8(fp)
 100060c:	e1ffff15 	stw	r7,-4(fp)
	OutGraphicsCharFont(x, y, fontcolour, backgroundcolour, c, Erase, 38, 59);
 1000610:	e0800217 	ldw	r2,8(fp)
 1000614:	d8800015 	stw	r2,0(sp)
 1000618:	e0800317 	ldw	r2,12(fp)
 100061c:	d8800115 	stw	r2,4(sp)
 1000620:	00800984 	movi	r2,38
 1000624:	d8800215 	stw	r2,8(sp)
 1000628:	00800ec4 	movi	r2,59
 100062c:	d8800315 	stw	r2,12(sp)
 1000630:	e13ffc17 	ldw	r4,-16(fp)
 1000634:	e17ffd17 	ldw	r5,-12(fp)
 1000638:	e1bffe17 	ldw	r6,-8(fp)
 100063c:	e1ffff17 	ldw	r7,-4(fp)
 1000640:	10002340 	call	1000234 <OutGraphicsCharFont>
}
 1000644:	e037883a 	mov	sp,fp
 1000648:	dfc00117 	ldw	ra,4(sp)
 100064c:	df000017 	ldw	fp,0(sp)
 1000650:	dec00204 	addi	sp,sp,8
 1000654:	f800283a 	ret

01000658 <TestSDCard>:
#include <stdio.h>
#include <stdlib.h>
#include <altera_up_sd_card_avalon_interface.h>
#include "SDCard_Test_Program.h"

void TestSDCard(){
 1000658:	deffbc04 	addi	sp,sp,-272
 100065c:	dfc04315 	stw	ra,268(sp)
 1000660:	df004215 	stw	fp,264(sp)
 1000664:	df004204 	addi	fp,sp,264
	alt_up_sd_card_dev *device_reference = NULL;
 1000668:	e03fbf15 	stw	zero,-260(fp)
	int connected = 0;
 100066c:	e03fbe15 	stw	zero,-264(fp)
	printf("--------------------------------\n");
 1000670:	010040b4 	movhi	r4,258
 1000674:	21064904 	addi	r4,r4,6436
 1000678:	10092480 	call	1009248 <puts>
	printf("Opening SDCard\n");
 100067c:	010040b4 	movhi	r4,258
 1000680:	21065204 	addi	r4,r4,6472
 1000684:	10092480 	call	1009248 <puts>
	if((device_reference = alt_up_sd_card_open_dev("/dev/Altera_UP_SD_Card_Avalon_Interface_0")) == NULL)
 1000688:	010040b4 	movhi	r4,258
 100068c:	21065604 	addi	r4,r4,6488
 1000690:	101ddd80 	call	101ddd8 <alt_up_sd_card_open_dev>
 1000694:	e0bfbf15 	stw	r2,-260(fp)
 1000698:	e0bfbf17 	ldw	r2,-260(fp)
 100069c:	1000041e 	bne	r2,zero,10006b0 <TestSDCard+0x58>
	{
		printf("SDCard Open FAILED\n");
 10006a0:	010040b4 	movhi	r4,258
 10006a4:	21066104 	addi	r4,r4,6532
 10006a8:	10092480 	call	1009248 <puts>
 10006ac:	00000306 	br	10006bc <TestSDCard+0x64>
	}
	else
		printf("SDCard Open PASSED\n");
 10006b0:	010040b4 	movhi	r4,258
 10006b4:	21066604 	addi	r4,r4,6552
 10006b8:	10092480 	call	1009248 <puts>


	if (device_reference != NULL ) {
 10006bc:	e0bfbf17 	ldw	r2,-260(fp)
 10006c0:	10003c26 	beq	r2,zero,10007b4 <TestSDCard+0x15c>
		printf("Reached level 1");
 10006c4:	010040b4 	movhi	r4,258
 10006c8:	21066b04 	addi	r4,r4,6572
 10006cc:	10091340 	call	1009134 <printf>
		while(1) {
			if ((connected == 0) && (alt_up_sd_card_is_Present())){
 10006d0:	e0bfbe17 	ldw	r2,-264(fp)
 10006d4:	10002d1e 	bne	r2,zero,100078c <TestSDCard+0x134>
 10006d8:	101de980 	call	101de98 <alt_up_sd_card_is_Present>
 10006dc:	10002b26 	beq	r2,zero,100078c <TestSDCard+0x134>
				printf("Card connected.\n");
 10006e0:	010040b4 	movhi	r4,258
 10006e4:	21066f04 	addi	r4,r4,6588
 10006e8:	10092480 	call	1009248 <puts>
				if (alt_up_sd_card_is_FAT16()) {
 10006ec:	101df5c0 	call	101df5c <alt_up_sd_card_is_FAT16>
 10006f0:	10002026 	beq	r2,zero,1000774 <TestSDCard+0x11c>
					printf("FAT16 file system detected.\n");
 10006f4:	010040b4 	movhi	r4,258
 10006f8:	21067304 	addi	r4,r4,6604
 10006fc:	10092480 	call	1009248 <puts>
					#define MAX_NAME_LEN 256
					#define DIR_NAME "A"

					char file_name[MAX_NAME_LEN];

					if (alt_up_sd_card_find_first("", file_name) == 0) {
 1000700:	e0bfc004 	addi	r2,fp,-256
 1000704:	010040b4 	movhi	r4,258
 1000708:	21067a04 	addi	r4,r4,6632
 100070c:	100b883a 	mov	r5,r2
 1000710:	101dfc80 	call	101dfc8 <alt_up_sd_card_find_first>
 1000714:	10bfffcc 	andi	r2,r2,65535
 1000718:	10a0001c 	xori	r2,r2,32768
 100071c:	10a00004 	addi	r2,r2,-32768
 1000720:	1000121e 	bne	r2,zero,100076c <TestSDCard+0x114>
						printf("Found file: %s\n", file_name);
 1000724:	e0bfc004 	addi	r2,fp,-256
 1000728:	010040b4 	movhi	r4,258
 100072c:	21067b04 	addi	r4,r4,6636
 1000730:	100b883a 	mov	r5,r2
 1000734:	10091340 	call	1009134 <printf>
						while (alt_up_sd_card_find_next(file_name) == 0) {
 1000738:	00000506 	br	1000750 <TestSDCard+0xf8>
							printf("Found file: %s\n", file_name);
 100073c:	e0bfc004 	addi	r2,fp,-256
 1000740:	010040b4 	movhi	r4,258
 1000744:	21067b04 	addi	r4,r4,6636
 1000748:	100b883a 	mov	r5,r2
 100074c:	10091340 	call	1009134 <printf>

					char file_name[MAX_NAME_LEN];

					if (alt_up_sd_card_find_first("", file_name) == 0) {
						printf("Found file: %s\n", file_name);
						while (alt_up_sd_card_find_next(file_name) == 0) {
 1000750:	e0bfc004 	addi	r2,fp,-256
 1000754:	1009883a 	mov	r4,r2
 1000758:	101e0980 	call	101e098 <alt_up_sd_card_find_next>
 100075c:	10bfffcc 	andi	r2,r2,65535
 1000760:	10a0001c 	xori	r2,r2,32768
 1000764:	10a00004 	addi	r2,r2,-32768
 1000768:	103ff426 	beq	r2,zero,100073c <__alt_data_end+0xff80073c>
							printf("Found file: %s\n", file_name);
						}
					}
					ReadFromFile();
 100076c:	10008d00 	call	10008d0 <ReadFromFile>
 1000770:	00000306 	br	1000780 <TestSDCard+0x128>

				}
				else {
					printf("Unknown file system.\n");
 1000774:	010040b4 	movhi	r4,258
 1000778:	21067f04 	addi	r4,r4,6652
 100077c:	10092480 	call	1009248 <puts>
				}
				connected = 1;
 1000780:	00800044 	movi	r2,1
 1000784:	e0bfbe15 	stw	r2,-264(fp)
 1000788:	00000906 	br	10007b0 <TestSDCard+0x158>
			} else if((connected == 1) && (alt_up_sd_card_is_Present() == false)){
 100078c:	e0bfbe17 	ldw	r2,-264(fp)
 1000790:	10800058 	cmpnei	r2,r2,1
 1000794:	1000061e 	bne	r2,zero,10007b0 <TestSDCard+0x158>
 1000798:	101de980 	call	101de98 <alt_up_sd_card_is_Present>
 100079c:	1000041e 	bne	r2,zero,10007b0 <TestSDCard+0x158>
				printf("Card disconnected.\n");
 10007a0:	010040b4 	movhi	r4,258
 10007a4:	21068504 	addi	r4,r4,6676
 10007a8:	10092480 	call	1009248 <puts>
				connected =0;
 10007ac:	e03fbe15 	stw	zero,-264(fp)
			}
		}
 10007b0:	003fc706 	br	10006d0 <__alt_data_end+0xff8006d0>
	}
	else
		printf("Can't open device\n");
 10007b4:	010040b4 	movhi	r4,258
 10007b8:	21068a04 	addi	r4,r4,6696
 10007bc:	10092480 	call	1009248 <puts>
}
 10007c0:	e037883a 	mov	sp,fp
 10007c4:	dfc00117 	ldw	ra,4(sp)
 10007c8:	df000017 	ldw	fp,0(sp)
 10007cc:	dec00204 	addi	sp,sp,8
 10007d0:	f800283a 	ret

010007d4 <WriteToFile>:

void WriteToFile(){
 10007d4:	defffc04 	addi	sp,sp,-16
 10007d8:	dfc00315 	stw	ra,12(sp)
 10007dc:	df000215 	stw	fp,8(sp)
 10007e0:	df000204 	addi	fp,sp,8
	 int myFileHandle;
	int i;
	printf("Reached level 1");
 10007e4:	010040b4 	movhi	r4,258
 10007e8:	21066b04 	addi	r4,r4,6572
 10007ec:	10091340 	call	1009134 <printf>
		myFileHandle = alt_up_sd_card_fopen("TEST.TXT", false);
 10007f0:	010040b4 	movhi	r4,258
 10007f4:	21068f04 	addi	r4,r4,6716
 10007f8:	000b883a 	mov	r5,zero
 10007fc:	101e4540 	call	101e454 <alt_up_sd_card_fopen>
 1000800:	10bfffcc 	andi	r2,r2,65535
 1000804:	10a0001c 	xori	r2,r2,32768
 1000808:	10a00004 	addi	r2,r2,-32768
 100080c:	e0bfff15 	stw	r2,-4(fp)
		printf("%d", myFileHandle);
 1000810:	010040b4 	movhi	r4,258
 1000814:	21069204 	addi	r4,r4,6728
 1000818:	e17fff17 	ldw	r5,-4(fp)
 100081c:	10091340 	call	1009134 <printf>
		if(myFileHandle != -1) {
 1000820:	e0bfff17 	ldw	r2,-4(fp)
 1000824:	10bfffe0 	cmpeqi	r2,r2,-1
 1000828:	1000211e 	bne	r2,zero,10008b0 <WriteToFile+0xdc>
			printf("File Opened\n");
 100082c:	010040b4 	movhi	r4,258
 1000830:	21069304 	addi	r4,r4,6732
 1000834:	10092480 	call	1009248 <puts>
			for(i = 0; i < 1024; i ++){
 1000838:	e03ffe15 	stw	zero,-8(fp)
 100083c:	00000f06 	br	100087c <WriteToFile+0xa8>
				if(alt_up_sd_card_write(myFileHandle,'A') == false){
 1000840:	e0bfff17 	ldw	r2,-4(fp)
 1000844:	10bfffcc 	andi	r2,r2,65535
 1000848:	10a0001c 	xori	r2,r2,32768
 100084c:	10a00004 	addi	r2,r2,-32768
 1000850:	1009883a 	mov	r4,r2
 1000854:	01401044 	movi	r5,65
 1000858:	101ec740 	call	101ec74 <alt_up_sd_card_write>
 100085c:	1000041e 	bne	r2,zero,1000870 <WriteToFile+0x9c>
					printf("Error writing to file...\n");
 1000860:	010040b4 	movhi	r4,258
 1000864:	21069604 	addi	r4,r4,6744
 1000868:	10092480 	call	1009248 <puts>
					return;
 100086c:	00001306 	br	10008bc <WriteToFile+0xe8>
	printf("Reached level 1");
		myFileHandle = alt_up_sd_card_fopen("TEST.TXT", false);
		printf("%d", myFileHandle);
		if(myFileHandle != -1) {
			printf("File Opened\n");
			for(i = 0; i < 1024; i ++){
 1000870:	e0bffe17 	ldw	r2,-8(fp)
 1000874:	10800044 	addi	r2,r2,1
 1000878:	e0bffe15 	stw	r2,-8(fp)
 100087c:	e0bffe17 	ldw	r2,-8(fp)
 1000880:	10810010 	cmplti	r2,r2,1024
 1000884:	103fee1e 	bne	r2,zero,1000840 <__alt_data_end+0xff800840>
				if(alt_up_sd_card_write(myFileHandle,'A') == false){
					printf("Error writing to file...\n");
					return;
				}
			}
			printf("Done!!!\n");
 1000888:	010040b4 	movhi	r4,258
 100088c:	21069d04 	addi	r4,r4,6772
 1000890:	10092480 	call	1009248 <puts>
			alt_up_sd_card_fclose(myFileHandle);
 1000894:	e0bfff17 	ldw	r2,-4(fp)
 1000898:	10bfffcc 	andi	r2,r2,65535
 100089c:	10a0001c 	xori	r2,r2,32768
 10008a0:	10a00004 	addi	r2,r2,-32768
 10008a4:	1009883a 	mov	r4,r2
 10008a8:	101f2c40 	call	101f2c4 <alt_up_sd_card_fclose>
 10008ac:	00000306 	br	10008bc <WriteToFile+0xe8>
		}
		else
			printf("File NOT Opened\n");
 10008b0:	010040b4 	movhi	r4,258
 10008b4:	21069f04 	addi	r4,r4,6780
 10008b8:	10092480 	call	1009248 <puts>

}
 10008bc:	e037883a 	mov	sp,fp
 10008c0:	dfc00117 	ldw	ra,4(sp)
 10008c4:	df000017 	ldw	fp,0(sp)
 10008c8:	dec00204 	addi	sp,sp,8
 10008cc:	f800283a 	ret

010008d0 <ReadFromFile>:


void ReadFromFile(){
 10008d0:	defffb04 	addi	sp,sp,-20
 10008d4:	dfc00415 	stw	ra,16(sp)
 10008d8:	df000315 	stw	fp,12(sp)
 10008dc:	df000304 	addi	fp,sp,12

		int myFileHandle;
		int i;
		printf("Reached level 1");
 10008e0:	010040b4 	movhi	r4,258
 10008e4:	21066b04 	addi	r4,r4,6572
 10008e8:	10091340 	call	1009134 <printf>
		myFileHandle = alt_up_sd_card_fopen("TEST.TXT", false);
 10008ec:	010040b4 	movhi	r4,258
 10008f0:	21068f04 	addi	r4,r4,6716
 10008f4:	000b883a 	mov	r5,zero
 10008f8:	101e4540 	call	101e454 <alt_up_sd_card_fopen>
 10008fc:	10bfffcc 	andi	r2,r2,65535
 1000900:	10a0001c 	xori	r2,r2,32768
 1000904:	10a00004 	addi	r2,r2,-32768
 1000908:	e0bffe15 	stw	r2,-8(fp)
		printf("%d", myFileHandle);
 100090c:	010040b4 	movhi	r4,258
 1000910:	21069204 	addi	r4,r4,6728
 1000914:	e17ffe17 	ldw	r5,-8(fp)
 1000918:	10091340 	call	1009134 <printf>
		if(myFileHandle != -1){
 100091c:	e0bffe17 	ldw	r2,-8(fp)
 1000920:	10bfffe0 	cmpeqi	r2,r2,-1
 1000924:	1000221e 	bne	r2,zero,10009b0 <ReadFromFile+0xe0>
			printf("File Opened");
 1000928:	010040b4 	movhi	r4,258
 100092c:	21069304 	addi	r4,r4,6732
 1000930:	10091340 	call	1009134 <printf>

		int readChar =  alt_up_sd_card_read(myFileHandle);
 1000934:	e0bffe17 	ldw	r2,-8(fp)
 1000938:	10bfffcc 	andi	r2,r2,65535
 100093c:	10a0001c 	xori	r2,r2,32768
 1000940:	10a00004 	addi	r2,r2,-32768
 1000944:	1009883a 	mov	r4,r2
 1000948:	101e8e40 	call	101e8e4 <alt_up_sd_card_read>
 100094c:	10bfffcc 	andi	r2,r2,65535
 1000950:	10a0001c 	xori	r2,r2,32768
 1000954:	10a00004 	addi	r2,r2,-32768
 1000958:	e0bffd15 	stw	r2,-12(fp)
		while(readChar >= 0){
 100095c:	00000e06 	br	1000998 <ReadFromFile+0xc8>
			char a  = readChar;
 1000960:	e0bffd17 	ldw	r2,-12(fp)
 1000964:	e0bfff05 	stb	r2,-4(fp)
			printf("%c", readChar);
 1000968:	e13ffd17 	ldw	r4,-12(fp)
 100096c:	10091780 	call	1009178 <putchar>
			readChar = alt_up_sd_card_read(myFileHandle);
 1000970:	e0bffe17 	ldw	r2,-8(fp)
 1000974:	10bfffcc 	andi	r2,r2,65535
 1000978:	10a0001c 	xori	r2,r2,32768
 100097c:	10a00004 	addi	r2,r2,-32768
 1000980:	1009883a 	mov	r4,r2
 1000984:	101e8e40 	call	101e8e4 <alt_up_sd_card_read>
 1000988:	10bfffcc 	andi	r2,r2,65535
 100098c:	10a0001c 	xori	r2,r2,32768
 1000990:	10a00004 	addi	r2,r2,-32768
 1000994:	e0bffd15 	stw	r2,-12(fp)
		printf("%d", myFileHandle);
		if(myFileHandle != -1){
			printf("File Opened");

		int readChar =  alt_up_sd_card_read(myFileHandle);
		while(readChar >= 0){
 1000998:	e0bffd17 	ldw	r2,-12(fp)
 100099c:	103ff00e 	bge	r2,zero,1000960 <__alt_data_end+0xff800960>
			char a  = readChar;
			printf("%c", readChar);
			readChar = alt_up_sd_card_read(myFileHandle);
		}

		printf("Done");
 10009a0:	010040b4 	movhi	r4,258
 10009a4:	2106a304 	addi	r4,r4,6796
 10009a8:	10091340 	call	1009134 <printf>
 10009ac:	00000306 	br	10009bc <ReadFromFile+0xec>
		}else{
			printf("File NOT OPENED");
 10009b0:	010040b4 	movhi	r4,258
 10009b4:	2106a504 	addi	r4,r4,6804
 10009b8:	10091340 	call	1009134 <printf>
		}



}
 10009bc:	e037883a 	mov	sp,fp
 10009c0:	dfc00117 	ldw	ra,4(sp)
 10009c4:	df000017 	ldw	fp,0(sp)
 10009c8:	dec00204 	addi	sp,sp,8
 10009cc:	f800283a 	ret

010009d0 <Init_GPSCHIP>:

int mode = 1;


void Init_GPSCHIP(void)
{
 10009d0:	defffe04 	addi	sp,sp,-8
 10009d4:	dfc00115 	stw	ra,4(sp)
 10009d8:	df000015 	stw	fp,0(sp)
 10009dc:	d839883a 	mov	fp,sp
 // program baud rate generator to use 115k baud

	//The 6850 Control Register write only
	// RS232_Control(7 DOWNTO 0) = |X|1|0|1|0|1|0|1| = 0b01010101 = 0x55 rts high & interrupt disable
	// RS232_Control(7 DOWNTO 0) = |X|0|0|1|0|1|0|1| = 0b00010101 = 0x15
	if(called_Init)
 10009e0:	d0a6fd17 	ldw	r2,-25612(gp)
 10009e4:	10000126 	beq	r2,zero,10009ec <Init_GPSCHIP+0x1c>
		return;
 10009e8:	00003d06 	br	1000ae0 <Init_GPSCHIP+0x110>


	GPSCHIP_Control = 0x15;
 10009ec:	00a10034 	movhi	r2,33792
 10009f0:	10808404 	addi	r2,r2,528
 10009f4:	00c00544 	movi	r3,21
 10009f8:	10c00005 	stb	r3,0(r2)
	GPSCHIP_Baud = 0x05; // program for 9600 baud
 10009fc:	00a10034 	movhi	r2,33792
 1000a00:	10808504 	addi	r2,r2,532
 1000a04:	00c00144 	movi	r3,5
 1000a08:	10c00005 	stb	r3,0(r2)
	printf("Initializing GPS CHIP");
 1000a0c:	010040f4 	movhi	r4,259
 1000a10:	212ff204 	addi	r4,r4,-16440
 1000a14:	10091340 	call	1009134 <printf>
	receivedFlag = 0;
 1000a18:	d0270d15 	stw	zero,-25548(gp)
	paused = 0;
 1000a1c:	d026ff15 	stw	zero,-25604(gp)
	lineidx = 0;
 1000a20:	d026fc15 	stw	zero,-25616(gp)
	currentline = line1;
 1000a24:	008040f4 	movhi	r2,259
 1000a28:	10820904 	addi	r2,r2,2084
 1000a2c:	d0a72215 	stw	r2,-25464(gp)
	lastline = line2;
 1000a30:	008040f4 	movhi	r2,259
 1000a34:	10822704 	addi	r2,r2,2204
 1000a38:	d0a70115 	stw	r2,-25596(gp)

	hour = minute = seconds = year = month = day =
	fixquality = satellites = 0; // int
 1000a3c:	d0271215 	stw	zero,-25528(gp)
 1000a40:	d0a71217 	ldw	r2,-25528(gp)
 1000a44:	d0a70215 	stw	r2,-25592(gp)
 1000a48:	d0a70217 	ldw	r2,-25592(gp)
	paused = 0;
	lineidx = 0;
	currentline = line1;
	lastline = line2;

	hour = minute = seconds = year = month = day =
 1000a4c:	d0a71f15 	stw	r2,-25476(gp)
 1000a50:	d0a71f17 	ldw	r2,-25476(gp)
 1000a54:	d0a70715 	stw	r2,-25572(gp)
 1000a58:	d0a70717 	ldw	r2,-25572(gp)
 1000a5c:	d0a71c15 	stw	r2,-25488(gp)
 1000a60:	d0a71c17 	ldw	r2,-25488(gp)
 1000a64:	d0a71615 	stw	r2,-25512(gp)
 1000a68:	d0a71617 	ldw	r2,-25512(gp)
 1000a6c:	d0a70915 	stw	r2,-25564(gp)
 1000a70:	d0a70917 	ldw	r2,-25564(gp)
 1000a74:	d0a70e15 	stw	r2,-25544(gp)
	fixquality = satellites = 0; // int
	lat = lon = mag = 0; // char
 1000a78:	d0272445 	stb	zero,-25455(gp)
 1000a7c:	d0a72443 	ldbu	r2,-25455(gp)
 1000a80:	d0a71005 	stb	r2,-25536(gp)
 1000a84:	d0a71003 	ldbu	r2,-25536(gp)
 1000a88:	d0a72405 	stb	r2,-25456(gp)
	fix = 0; // boolean
 1000a8c:	d0271815 	stw	zero,-25504(gp)
	milliseconds = 0; // int
 1000a90:	d0270c15 	stw	zero,-25552(gp)
	latitude = longitude = geoidheight = altitude =
	speed = angle = magvariation = HDOP = 0.0; // float
 1000a94:	d0272315 	stw	zero,-25460(gp)
 1000a98:	d0a72317 	ldw	r2,-25460(gp)
 1000a9c:	d0a70615 	stw	r2,-25576(gp)
 1000aa0:	d0a70617 	ldw	r2,-25576(gp)
 1000aa4:	d0a70f15 	stw	r2,-25540(gp)
 1000aa8:	d0a70f17 	ldw	r2,-25540(gp)
 1000aac:	d0a72115 	stw	r2,-25468(gp)
 1000ab0:	d0a72117 	ldw	r2,-25468(gp)
	hour = minute = seconds = year = month = day =
	fixquality = satellites = 0; // int
	lat = lon = mag = 0; // char
	fix = 0; // boolean
	milliseconds = 0; // int
	latitude = longitude = geoidheight = altitude =
 1000ab4:	d0a71315 	stw	r2,-25524(gp)
 1000ab8:	d0a71317 	ldw	r2,-25524(gp)
 1000abc:	d0a6fe15 	stw	r2,-25608(gp)
 1000ac0:	d0a6fe17 	ldw	r2,-25608(gp)
 1000ac4:	d0a71115 	stw	r2,-25532(gp)
 1000ac8:	d0a71117 	ldw	r2,-25532(gp)
 1000acc:	d0a71e15 	stw	r2,-25480(gp)
	speed = angle = magvariation = HDOP = 0.0; // float
	called_Init = 1;
 1000ad0:	00800044 	movi	r2,1
 1000ad4:	d0a6fd15 	stw	r2,-25612(gp)
	usleep(10000);
 1000ad8:	0109c404 	movi	r4,10000
 1000adc:	101aea00 	call	101aea0 <usleep>
}
 1000ae0:	e037883a 	mov	sp,fp
 1000ae4:	dfc00117 	ldw	ra,4(sp)
 1000ae8:	df000017 	ldw	fp,0(sp)
 1000aec:	dec00204 	addi	sp,sp,8
 1000af0:	f800283a 	ret

01000af4 <parseData>:


int parseData(char *data) {
 1000af4:	deffeb04 	addi	sp,sp,-84
 1000af8:	dfc01415 	stw	ra,80(sp)
 1000afc:	df001315 	stw	fp,76(sp)
 1000b00:	dc001215 	stw	r16,72(sp)
 1000b04:	df001304 	addi	fp,sp,76
 1000b08:	e13ffe15 	stw	r4,-8(fp)

	if(data[strlen(data) - 4] == '*'){
 1000b0c:	e13ffe17 	ldw	r4,-8(fp)
 1000b10:	1009edc0 	call	1009edc <strlen>
 1000b14:	10bfff04 	addi	r2,r2,-4
 1000b18:	e0fffe17 	ldw	r3,-8(fp)
 1000b1c:	1885883a 	add	r2,r3,r2
 1000b20:	10800003 	ldbu	r2,0(r2)
 1000b24:	10803fcc 	andi	r2,r2,255
 1000b28:	1080201c 	xori	r2,r2,128
 1000b2c:	10bfe004 	addi	r2,r2,-128
 1000b30:	10800a98 	cmpnei	r2,r2,42
 1000b34:	1000371e 	bne	r2,zero,1000c14 <parseData+0x120>
		int sum = parseHex(data[strlen(data) -3])*16;
 1000b38:	e13ffe17 	ldw	r4,-8(fp)
 1000b3c:	1009edc0 	call	1009edc <strlen>
 1000b40:	10bfff44 	addi	r2,r2,-3
 1000b44:	e0fffe17 	ldw	r3,-8(fp)
 1000b48:	1885883a 	add	r2,r3,r2
 1000b4c:	10800003 	ldbu	r2,0(r2)
 1000b50:	10803fcc 	andi	r2,r2,255
 1000b54:	1080201c 	xori	r2,r2,128
 1000b58:	10bfe004 	addi	r2,r2,-128
 1000b5c:	1009883a 	mov	r4,r2
 1000b60:	1001c400 	call	1001c40 <parseHex>
 1000b64:	1004913a 	slli	r2,r2,4
 1000b68:	e0bfed15 	stw	r2,-76(fp)
		sum += parseHex(data[strlen(data) - 2]);
 1000b6c:	e13ffe17 	ldw	r4,-8(fp)
 1000b70:	1009edc0 	call	1009edc <strlen>
 1000b74:	10bfff84 	addi	r2,r2,-2
 1000b78:	e0fffe17 	ldw	r3,-8(fp)
 1000b7c:	1885883a 	add	r2,r3,r2
 1000b80:	10800003 	ldbu	r2,0(r2)
 1000b84:	10803fcc 	andi	r2,r2,255
 1000b88:	1080201c 	xori	r2,r2,128
 1000b8c:	10bfe004 	addi	r2,r2,-128
 1000b90:	1009883a 	mov	r4,r2
 1000b94:	1001c400 	call	1001c40 <parseHex>
 1000b98:	1007883a 	mov	r3,r2
 1000b9c:	e0bfed17 	ldw	r2,-76(fp)
 1000ba0:	10c5883a 	add	r2,r2,r3
 1000ba4:	e0bfed15 	stw	r2,-76(fp)

		//check checksum
		int i;
		int length = strlen(data) -4;
 1000ba8:	e13ffe17 	ldw	r4,-8(fp)
 1000bac:	1009edc0 	call	1009edc <strlen>
 1000bb0:	10bfff04 	addi	r2,r2,-4
 1000bb4:	e0bff115 	stw	r2,-60(fp)
		for(i = 2; i < length; i++) {
 1000bb8:	00800084 	movi	r2,2
 1000bbc:	e0bfee15 	stw	r2,-72(fp)
 1000bc0:	00000d06 	br	1000bf8 <parseData+0x104>
			sum ^= data[i];
 1000bc4:	e0bfee17 	ldw	r2,-72(fp)
 1000bc8:	e0fffe17 	ldw	r3,-8(fp)
 1000bcc:	1885883a 	add	r2,r3,r2
 1000bd0:	10800003 	ldbu	r2,0(r2)
 1000bd4:	10803fcc 	andi	r2,r2,255
 1000bd8:	1080201c 	xori	r2,r2,128
 1000bdc:	10bfe004 	addi	r2,r2,-128
 1000be0:	e0ffed17 	ldw	r3,-76(fp)
 1000be4:	1884f03a 	xor	r2,r3,r2
 1000be8:	e0bfed15 	stw	r2,-76(fp)
		sum += parseHex(data[strlen(data) - 2]);

		//check checksum
		int i;
		int length = strlen(data) -4;
		for(i = 2; i < length; i++) {
 1000bec:	e0bfee17 	ldw	r2,-72(fp)
 1000bf0:	10800044 	addi	r2,r2,1
 1000bf4:	e0bfee15 	stw	r2,-72(fp)
 1000bf8:	e0ffee17 	ldw	r3,-72(fp)
 1000bfc:	e0bff117 	ldw	r2,-60(fp)
 1000c00:	18bff016 	blt	r3,r2,1000bc4 <__alt_data_end+0xff800bc4>
			sum ^= data[i];
		}

		if(sum != 0) {
 1000c04:	e0bfed17 	ldw	r2,-76(fp)
 1000c08:	10000226 	beq	r2,zero,1000c14 <parseData+0x120>
			return 0;
 1000c0c:	0005883a 	mov	r2,zero
 1000c10:	00040506 	br	1001c28 <parseData+0x1134>
	int32_t degree;
	long minutes;
	char degreebuff[10];

	//GGA format
	if(strstr(data, "$GPGGA")) {
 1000c14:	e13ffe17 	ldw	r4,-8(fp)
 1000c18:	014040f4 	movhi	r5,259
 1000c1c:	296ff804 	addi	r5,r5,-16416
 1000c20:	100a4d00 	call	100a4d0 <strstr>
 1000c24:	1001f926 	beq	r2,zero,100140c <parseData+0x918>
		format = "$GPGGA";
 1000c28:	008040f4 	movhi	r2,259
 1000c2c:	10aff804 	addi	r2,r2,-16416
 1000c30:	d0a70515 	stw	r2,-25580(gp)
		char *p = data;
 1000c34:	e0bffe17 	ldw	r2,-8(fp)
 1000c38:	e0bfef15 	stw	r2,-68(fp)
		p = strchr(p, ',') + 1;
 1000c3c:	e13fef17 	ldw	r4,-68(fp)
 1000c40:	01400b04 	movi	r5,44
 1000c44:	10096fc0 	call	10096fc <strchr>
 1000c48:	10800044 	addi	r2,r2,1
 1000c4c:	e0bfef15 	stw	r2,-68(fp)
		float timef = atof(p);
 1000c50:	e13fef17 	ldw	r4,-68(fp)
 1000c54:	1006cdc0 	call	1006cdc <atof>
 1000c58:	100b883a 	mov	r5,r2
 1000c5c:	180d883a 	mov	r6,r3
 1000c60:	2809883a 	mov	r4,r5
 1000c64:	300b883a 	mov	r5,r6
 1000c68:	1006ae00 	call	1006ae0 <__truncdfsf2>
 1000c6c:	1007883a 	mov	r3,r2
 1000c70:	e0fff215 	stw	r3,-56(fp)
		int time = timef;
 1000c74:	e13ff217 	ldw	r4,-56(fp)
 1000c78:	100552c0 	call	100552c <__fixsfsi>
 1000c7c:	e0bff315 	stw	r2,-52(fp)
		hour = time/10000;
 1000c80:	e0bff317 	ldw	r2,-52(fp)
 1000c84:	1009883a 	mov	r4,r2
 1000c88:	0149c404 	movi	r5,10000
 1000c8c:	10041c80 	call	10041c8 <__divsi3>
 1000c90:	d0a70e15 	stw	r2,-25544(gp)
		minute = (time % 10000) / 100;
 1000c94:	e0bff317 	ldw	r2,-52(fp)
 1000c98:	1009883a 	mov	r4,r2
 1000c9c:	0149c404 	movi	r5,10000
 1000ca0:	100421c0 	call	100421c <__modsi3>
 1000ca4:	1009883a 	mov	r4,r2
 1000ca8:	01401904 	movi	r5,100
 1000cac:	10041c80 	call	10041c8 <__divsi3>
 1000cb0:	d0a70915 	stw	r2,-25564(gp)
		seconds = (time % 100);
 1000cb4:	e0bff317 	ldw	r2,-52(fp)
 1000cb8:	1009883a 	mov	r4,r2
 1000cbc:	01401904 	movi	r5,100
 1000cc0:	100421c0 	call	100421c <__modsi3>
 1000cc4:	d0a71615 	stw	r2,-25512(gp)

		milliseconds = fmod(timef, 1.0)*1000;
 1000cc8:	e13ff217 	ldw	r4,-56(fp)
 1000ccc:	10069d00 	call	10069d0 <__extendsfdf2>
 1000cd0:	100b883a 	mov	r5,r2
 1000cd4:	180d883a 	mov	r6,r3
 1000cd8:	2809883a 	mov	r4,r5
 1000cdc:	300b883a 	mov	r5,r6
 1000ce0:	000d883a 	mov	r6,zero
 1000ce4:	01cffc34 	movhi	r7,16368
 1000ce8:	1003b4c0 	call	1003b4c <fmod>
 1000cec:	100b883a 	mov	r5,r2
 1000cf0:	180d883a 	mov	r6,r3
 1000cf4:	2809883a 	mov	r4,r5
 1000cf8:	300b883a 	mov	r5,r6
 1000cfc:	000d883a 	mov	r6,zero
 1000d00:	01d023f4 	movhi	r7,16527
 1000d04:	39d00004 	addi	r7,r7,16384
 1000d08:	10060dc0 	call	10060dc <__muldf3>
 1000d0c:	1009883a 	mov	r4,r2
 1000d10:	180b883a 	mov	r5,r3
 1000d14:	2005883a 	mov	r2,r4
 1000d18:	2807883a 	mov	r3,r5
 1000d1c:	1009883a 	mov	r4,r2
 1000d20:	180b883a 	mov	r5,r3
 1000d24:	10069480 	call	1006948 <__fixdfsi>
 1000d28:	d0a70c15 	stw	r2,-25552(gp)

		//latitude

		p = strchr(p, ',') + 1;
 1000d2c:	e13fef17 	ldw	r4,-68(fp)
 1000d30:	01400b04 	movi	r5,44
 1000d34:	10096fc0 	call	10096fc <strchr>
 1000d38:	10800044 	addi	r2,r2,1
 1000d3c:	e0bfef15 	stw	r2,-68(fp)
		if(',' != *p)
 1000d40:	e0bfef17 	ldw	r2,-68(fp)
 1000d44:	10800003 	ldbu	r2,0(r2)
 1000d48:	10803fcc 	andi	r2,r2,255
 1000d4c:	1080201c 	xori	r2,r2,128
 1000d50:	10bfe004 	addi	r2,r2,-128
 1000d54:	10800b20 	cmpeqi	r2,r2,44
 1000d58:	1000691e 	bne	r2,zero,1000f00 <parseData+0x40c>
		{
			strncpy(degreebuff, p ,2);
 1000d5c:	e0bffb04 	addi	r2,fp,-20
 1000d60:	1009883a 	mov	r4,r2
 1000d64:	e17fef17 	ldw	r5,-68(fp)
 1000d68:	01800084 	movi	r6,2
 1000d6c:	1009f740 	call	1009f74 <strncpy>
			p +=2;
 1000d70:	e0bfef17 	ldw	r2,-68(fp)
 1000d74:	10800084 	addi	r2,r2,2
 1000d78:	e0bfef15 	stw	r2,-68(fp)
			degreebuff[2] = '\0';
 1000d7c:	e03ffb85 	stb	zero,-18(fp)
			degree = atol(degreebuff)*10000000;
 1000d80:	e0bffb04 	addi	r2,fp,-20
 1000d84:	1009883a 	mov	r4,r2
 1000d88:	1006cfc0 	call	1006cfc <atol>
 1000d8c:	1009883a 	mov	r4,r2
 1000d90:	01402674 	movhi	r5,153
 1000d94:	2965a004 	addi	r5,r5,-27008
 1000d98:	10042880 	call	1004288 <__mulsi3>
 1000d9c:	e0bff415 	stw	r2,-48(fp)
			strncpy(degreebuff, p, 2);
 1000da0:	e0bffb04 	addi	r2,fp,-20
 1000da4:	1009883a 	mov	r4,r2
 1000da8:	e17fef17 	ldw	r5,-68(fp)
 1000dac:	01800084 	movi	r6,2
 1000db0:	1009f740 	call	1009f74 <strncpy>
			p += 3;
 1000db4:	e0bfef17 	ldw	r2,-68(fp)
 1000db8:	108000c4 	addi	r2,r2,3
 1000dbc:	e0bfef15 	stw	r2,-68(fp)
			strncpy(degreebuff + 2, p , 4);
 1000dc0:	e0bffb04 	addi	r2,fp,-20
 1000dc4:	10800084 	addi	r2,r2,2
 1000dc8:	1009883a 	mov	r4,r2
 1000dcc:	e17fef17 	ldw	r5,-68(fp)
 1000dd0:	01800104 	movi	r6,4
 1000dd4:	1009f740 	call	1009f74 <strncpy>
			degreebuff[6] = '\0';
 1000dd8:	e03ffc85 	stb	zero,-14(fp)
			minutes = 50*atol(degreebuff) / 3;
 1000ddc:	e0bffb04 	addi	r2,fp,-20
 1000de0:	1009883a 	mov	r4,r2
 1000de4:	1006cfc0 	call	1006cfc <atol>
 1000de8:	1009883a 	mov	r4,r2
 1000dec:	01400c84 	movi	r5,50
 1000df0:	10042880 	call	1004288 <__mulsi3>
 1000df4:	1009883a 	mov	r4,r2
 1000df8:	014000c4 	movi	r5,3
 1000dfc:	10041c80 	call	10041c8 <__divsi3>
 1000e00:	e0bff515 	stw	r2,-44(fp)
			latitude_fixed = degree + minutes;
 1000e04:	e0fff417 	ldw	r3,-48(fp)
 1000e08:	e0bff517 	ldw	r2,-44(fp)
 1000e0c:	1885883a 	add	r2,r3,r2
 1000e10:	d0a70b15 	stw	r2,-25556(gp)
			latitude = degree/100000 + minutes*0.000006F;
 1000e14:	e0bff417 	ldw	r2,-48(fp)
 1000e18:	1009883a 	mov	r4,r2
 1000e1c:	014000b4 	movhi	r5,2
 1000e20:	2961a804 	addi	r5,r5,-31072
 1000e24:	10041c80 	call	10041c8 <__divsi3>
 1000e28:	1009883a 	mov	r4,r2
 1000e2c:	10055a40 	call	10055a4 <__floatsisf>
 1000e30:	1021883a 	mov	r16,r2
 1000e34:	e13ff517 	ldw	r4,-44(fp)
 1000e38:	10055a40 	call	10055a4 <__floatsisf>
 1000e3c:	1007883a 	mov	r3,r2
 1000e40:	1809883a 	mov	r4,r3
 1000e44:	014db274 	movhi	r5,14025
 1000e48:	2954e704 	addi	r5,r5,21404
 1000e4c:	1004be00 	call	1004be0 <__mulsf3>
 1000e50:	1007883a 	mov	r3,r2
 1000e54:	1805883a 	mov	r2,r3
 1000e58:	8009883a 	mov	r4,r16
 1000e5c:	100b883a 	mov	r5,r2
 1000e60:	10042b00 	call	10042b0 <__addsf3>
 1000e64:	1007883a 	mov	r3,r2
 1000e68:	1805883a 	mov	r2,r3
 1000e6c:	d0a71e15 	stw	r2,-25480(gp)
			latitudeDegrees = (latitude-100*(latitude/100))/60.0;
 1000e70:	d4271e17 	ldw	r16,-25480(gp)
 1000e74:	d0a71e17 	ldw	r2,-25480(gp)
 1000e78:	1009883a 	mov	r4,r2
 1000e7c:	0150b234 	movhi	r5,17096
 1000e80:	10047900 	call	1004790 <__divsf3>
 1000e84:	1007883a 	mov	r3,r2
 1000e88:	1805883a 	mov	r2,r3
 1000e8c:	1009883a 	mov	r4,r2
 1000e90:	0150b234 	movhi	r5,17096
 1000e94:	1004be00 	call	1004be0 <__mulsf3>
 1000e98:	1007883a 	mov	r3,r2
 1000e9c:	1805883a 	mov	r2,r3
 1000ea0:	8009883a 	mov	r4,r16
 1000ea4:	100b883a 	mov	r5,r2
 1000ea8:	10050300 	call	1005030 <__subsf3>
 1000eac:	1007883a 	mov	r3,r2
 1000eb0:	1805883a 	mov	r2,r3
 1000eb4:	1009883a 	mov	r4,r2
 1000eb8:	01509c34 	movhi	r5,17008
 1000ebc:	10047900 	call	1004790 <__divsf3>
 1000ec0:	1007883a 	mov	r3,r2
 1000ec4:	1805883a 	mov	r2,r3
 1000ec8:	d0a71b15 	stw	r2,-25492(gp)
			latitudeDegrees += (latitude/100);
 1000ecc:	d0a71e17 	ldw	r2,-25480(gp)
 1000ed0:	1009883a 	mov	r4,r2
 1000ed4:	0150b234 	movhi	r5,17096
 1000ed8:	10047900 	call	1004790 <__divsf3>
 1000edc:	1009883a 	mov	r4,r2
 1000ee0:	2007883a 	mov	r3,r4
 1000ee4:	d0a71b17 	ldw	r2,-25492(gp)
 1000ee8:	1809883a 	mov	r4,r3
 1000eec:	100b883a 	mov	r5,r2
 1000ef0:	10042b00 	call	10042b0 <__addsf3>
 1000ef4:	1007883a 	mov	r3,r2
 1000ef8:	1805883a 	mov	r2,r3
 1000efc:	d0a71b15 	stw	r2,-25492(gp)
		}

	    p = strchr(p, ',')+1;
 1000f00:	e13fef17 	ldw	r4,-68(fp)
 1000f04:	01400b04 	movi	r5,44
 1000f08:	10096fc0 	call	10096fc <strchr>
 1000f0c:	10800044 	addi	r2,r2,1
 1000f10:	e0bfef15 	stw	r2,-68(fp)
	    if (',' != *p)
 1000f14:	e0bfef17 	ldw	r2,-68(fp)
 1000f18:	10800003 	ldbu	r2,0(r2)
 1000f1c:	10803fcc 	andi	r2,r2,255
 1000f20:	1080201c 	xori	r2,r2,128
 1000f24:	10bfe004 	addi	r2,r2,-128
 1000f28:	10800b20 	cmpeqi	r2,r2,44
 1000f2c:	1000291e 	bne	r2,zero,1000fd4 <parseData+0x4e0>
	    {
	      if (p[0] == 'S') latitudeDegrees *= -1.0;
 1000f30:	e0bfef17 	ldw	r2,-68(fp)
 1000f34:	10800003 	ldbu	r2,0(r2)
 1000f38:	10803fcc 	andi	r2,r2,255
 1000f3c:	1080201c 	xori	r2,r2,128
 1000f40:	10bfe004 	addi	r2,r2,-128
 1000f44:	108014d8 	cmpnei	r2,r2,83
 1000f48:	1000031e 	bne	r2,zero,1000f58 <parseData+0x464>
 1000f4c:	d0a71b17 	ldw	r2,-25492(gp)
 1000f50:	10a0003c 	xorhi	r2,r2,32768
 1000f54:	d0a71b15 	stw	r2,-25492(gp)
	      if (p[0] == 'N') lat = 'N';
 1000f58:	e0bfef17 	ldw	r2,-68(fp)
 1000f5c:	10800003 	ldbu	r2,0(r2)
 1000f60:	10803fcc 	andi	r2,r2,255
 1000f64:	1080201c 	xori	r2,r2,128
 1000f68:	10bfe004 	addi	r2,r2,-128
 1000f6c:	10801398 	cmpnei	r2,r2,78
 1000f70:	1000031e 	bne	r2,zero,1000f80 <parseData+0x48c>
 1000f74:	00801384 	movi	r2,78
 1000f78:	d0a72405 	stb	r2,-25456(gp)
 1000f7c:	00001506 	br	1000fd4 <parseData+0x4e0>
	      else if (p[0] == 'S') lat = 'S';
 1000f80:	e0bfef17 	ldw	r2,-68(fp)
 1000f84:	10800003 	ldbu	r2,0(r2)
 1000f88:	10803fcc 	andi	r2,r2,255
 1000f8c:	1080201c 	xori	r2,r2,128
 1000f90:	10bfe004 	addi	r2,r2,-128
 1000f94:	108014d8 	cmpnei	r2,r2,83
 1000f98:	1000031e 	bne	r2,zero,1000fa8 <parseData+0x4b4>
 1000f9c:	008014c4 	movi	r2,83
 1000fa0:	d0a72405 	stb	r2,-25456(gp)
 1000fa4:	00000b06 	br	1000fd4 <parseData+0x4e0>
	      else if (p[0] == ',') lat = 0;
 1000fa8:	e0bfef17 	ldw	r2,-68(fp)
 1000fac:	10800003 	ldbu	r2,0(r2)
 1000fb0:	10803fcc 	andi	r2,r2,255
 1000fb4:	1080201c 	xori	r2,r2,128
 1000fb8:	10bfe004 	addi	r2,r2,-128
 1000fbc:	10800b18 	cmpnei	r2,r2,44
 1000fc0:	1000021e 	bne	r2,zero,1000fcc <parseData+0x4d8>
 1000fc4:	d0272405 	stb	zero,-25456(gp)
 1000fc8:	00000206 	br	1000fd4 <parseData+0x4e0>
	      else return 0;
 1000fcc:	0005883a 	mov	r2,zero
 1000fd0:	00031506 	br	1001c28 <parseData+0x1134>
	    }

	    p = strchr(p, ',')+1;
 1000fd4:	e13fef17 	ldw	r4,-68(fp)
 1000fd8:	01400b04 	movi	r5,44
 1000fdc:	10096fc0 	call	10096fc <strchr>
 1000fe0:	10800044 	addi	r2,r2,1
 1000fe4:	e0bfef15 	stw	r2,-68(fp)

	    if (',' != *p)
 1000fe8:	e0bfef17 	ldw	r2,-68(fp)
 1000fec:	10800003 	ldbu	r2,0(r2)
 1000ff0:	10803fcc 	andi	r2,r2,255
 1000ff4:	1080201c 	xori	r2,r2,128
 1000ff8:	10bfe004 	addi	r2,r2,-128
 1000ffc:	10800b20 	cmpeqi	r2,r2,44
 1001000:	1000691e 	bne	r2,zero,10011a8 <parseData+0x6b4>
	    {
	       strncpy(degreebuff, p, 3);
 1001004:	e0bffb04 	addi	r2,fp,-20
 1001008:	1009883a 	mov	r4,r2
 100100c:	e17fef17 	ldw	r5,-68(fp)
 1001010:	018000c4 	movi	r6,3
 1001014:	1009f740 	call	1009f74 <strncpy>
	       p += 3;
 1001018:	e0bfef17 	ldw	r2,-68(fp)
 100101c:	108000c4 	addi	r2,r2,3
 1001020:	e0bfef15 	stw	r2,-68(fp)
	       degreebuff[3] = '\0';
 1001024:	e03ffbc5 	stb	zero,-17(fp)
	       degree = atol(degreebuff) * 10000000;
 1001028:	e0bffb04 	addi	r2,fp,-20
 100102c:	1009883a 	mov	r4,r2
 1001030:	1006cfc0 	call	1006cfc <atol>
 1001034:	1009883a 	mov	r4,r2
 1001038:	01402674 	movhi	r5,153
 100103c:	2965a004 	addi	r5,r5,-27008
 1001040:	10042880 	call	1004288 <__mulsi3>
 1001044:	e0bff415 	stw	r2,-48(fp)
	       strncpy(degreebuff, p, 2); // minutes
 1001048:	e0bffb04 	addi	r2,fp,-20
 100104c:	1009883a 	mov	r4,r2
 1001050:	e17fef17 	ldw	r5,-68(fp)
 1001054:	01800084 	movi	r6,2
 1001058:	1009f740 	call	1009f74 <strncpy>
	       p += 3; // skip decimal point
 100105c:	e0bfef17 	ldw	r2,-68(fp)
 1001060:	108000c4 	addi	r2,r2,3
 1001064:	e0bfef15 	stw	r2,-68(fp)
	       strncpy(degreebuff + 2, p, 4);
 1001068:	e0bffb04 	addi	r2,fp,-20
 100106c:	10800084 	addi	r2,r2,2
 1001070:	1009883a 	mov	r4,r2
 1001074:	e17fef17 	ldw	r5,-68(fp)
 1001078:	01800104 	movi	r6,4
 100107c:	1009f740 	call	1009f74 <strncpy>
	       degreebuff[6] = '\0';
 1001080:	e03ffc85 	stb	zero,-14(fp)
	       minutes = 50 * atol(degreebuff) / 3;
 1001084:	e0bffb04 	addi	r2,fp,-20
 1001088:	1009883a 	mov	r4,r2
 100108c:	1006cfc0 	call	1006cfc <atol>
 1001090:	1009883a 	mov	r4,r2
 1001094:	01400c84 	movi	r5,50
 1001098:	10042880 	call	1004288 <__mulsi3>
 100109c:	1009883a 	mov	r4,r2
 10010a0:	014000c4 	movi	r5,3
 10010a4:	10041c80 	call	10041c8 <__divsi3>
 10010a8:	e0bff515 	stw	r2,-44(fp)
	       longitude_fixed = degree + minutes;
 10010ac:	e0fff417 	ldw	r3,-48(fp)
 10010b0:	e0bff517 	ldw	r2,-44(fp)
 10010b4:	1885883a 	add	r2,r3,r2
 10010b8:	d0a71415 	stw	r2,-25520(gp)
	       longitude = degree / 100000 + minutes * 0.000006F;
 10010bc:	e0bff417 	ldw	r2,-48(fp)
 10010c0:	1009883a 	mov	r4,r2
 10010c4:	014000b4 	movhi	r5,2
 10010c8:	2961a804 	addi	r5,r5,-31072
 10010cc:	10041c80 	call	10041c8 <__divsi3>
 10010d0:	1009883a 	mov	r4,r2
 10010d4:	10055a40 	call	10055a4 <__floatsisf>
 10010d8:	1021883a 	mov	r16,r2
 10010dc:	e13ff517 	ldw	r4,-44(fp)
 10010e0:	10055a40 	call	10055a4 <__floatsisf>
 10010e4:	1007883a 	mov	r3,r2
 10010e8:	1809883a 	mov	r4,r3
 10010ec:	014db274 	movhi	r5,14025
 10010f0:	2954e704 	addi	r5,r5,21404
 10010f4:	1004be00 	call	1004be0 <__mulsf3>
 10010f8:	1007883a 	mov	r3,r2
 10010fc:	1805883a 	mov	r2,r3
 1001100:	8009883a 	mov	r4,r16
 1001104:	100b883a 	mov	r5,r2
 1001108:	10042b00 	call	10042b0 <__addsf3>
 100110c:	1007883a 	mov	r3,r2
 1001110:	1805883a 	mov	r2,r3
 1001114:	d0a71115 	stw	r2,-25532(gp)
	       longitudeDegrees = (longitude-100*(longitude/100))/60.0;
 1001118:	d4271117 	ldw	r16,-25532(gp)
 100111c:	d0a71117 	ldw	r2,-25532(gp)
 1001120:	1009883a 	mov	r4,r2
 1001124:	0150b234 	movhi	r5,17096
 1001128:	10047900 	call	1004790 <__divsf3>
 100112c:	1007883a 	mov	r3,r2
 1001130:	1805883a 	mov	r2,r3
 1001134:	1009883a 	mov	r4,r2
 1001138:	0150b234 	movhi	r5,17096
 100113c:	1004be00 	call	1004be0 <__mulsf3>
 1001140:	1007883a 	mov	r3,r2
 1001144:	1805883a 	mov	r2,r3
 1001148:	8009883a 	mov	r4,r16
 100114c:	100b883a 	mov	r5,r2
 1001150:	10050300 	call	1005030 <__subsf3>
 1001154:	1007883a 	mov	r3,r2
 1001158:	1805883a 	mov	r2,r3
 100115c:	1009883a 	mov	r4,r2
 1001160:	01509c34 	movhi	r5,17008
 1001164:	10047900 	call	1004790 <__divsf3>
 1001168:	1007883a 	mov	r3,r2
 100116c:	1805883a 	mov	r2,r3
 1001170:	d0a71915 	stw	r2,-25500(gp)
	       longitudeDegrees += (longitude/100);
 1001174:	d0a71117 	ldw	r2,-25532(gp)
 1001178:	1009883a 	mov	r4,r2
 100117c:	0150b234 	movhi	r5,17096
 1001180:	10047900 	call	1004790 <__divsf3>
 1001184:	1009883a 	mov	r4,r2
 1001188:	2007883a 	mov	r3,r4
 100118c:	d0a71917 	ldw	r2,-25500(gp)
 1001190:	1809883a 	mov	r4,r3
 1001194:	100b883a 	mov	r5,r2
 1001198:	10042b00 	call	10042b0 <__addsf3>
 100119c:	1007883a 	mov	r3,r2
 10011a0:	1805883a 	mov	r2,r3
 10011a4:	d0a71915 	stw	r2,-25500(gp)
	    }

	    p = strchr(p, ',')+1;
 10011a8:	e13fef17 	ldw	r4,-68(fp)
 10011ac:	01400b04 	movi	r5,44
 10011b0:	10096fc0 	call	10096fc <strchr>
 10011b4:	10800044 	addi	r2,r2,1
 10011b8:	e0bfef15 	stw	r2,-68(fp)
	      if (',' != *p)
 10011bc:	e0bfef17 	ldw	r2,-68(fp)
 10011c0:	10800003 	ldbu	r2,0(r2)
 10011c4:	10803fcc 	andi	r2,r2,255
 10011c8:	1080201c 	xori	r2,r2,128
 10011cc:	10bfe004 	addi	r2,r2,-128
 10011d0:	10800b20 	cmpeqi	r2,r2,44
 10011d4:	1000291e 	bne	r2,zero,100127c <parseData+0x788>
	      {
	        if (p[0] == 'W') longitudeDegrees *= -1.0;
 10011d8:	e0bfef17 	ldw	r2,-68(fp)
 10011dc:	10800003 	ldbu	r2,0(r2)
 10011e0:	10803fcc 	andi	r2,r2,255
 10011e4:	1080201c 	xori	r2,r2,128
 10011e8:	10bfe004 	addi	r2,r2,-128
 10011ec:	108015d8 	cmpnei	r2,r2,87
 10011f0:	1000031e 	bne	r2,zero,1001200 <parseData+0x70c>
 10011f4:	d0a71917 	ldw	r2,-25500(gp)
 10011f8:	10a0003c 	xorhi	r2,r2,32768
 10011fc:	d0a71915 	stw	r2,-25500(gp)
	        if (p[0] == 'W') lon = 'W';
 1001200:	e0bfef17 	ldw	r2,-68(fp)
 1001204:	10800003 	ldbu	r2,0(r2)
 1001208:	10803fcc 	andi	r2,r2,255
 100120c:	1080201c 	xori	r2,r2,128
 1001210:	10bfe004 	addi	r2,r2,-128
 1001214:	108015d8 	cmpnei	r2,r2,87
 1001218:	1000031e 	bne	r2,zero,1001228 <parseData+0x734>
 100121c:	008015c4 	movi	r2,87
 1001220:	d0a71005 	stb	r2,-25536(gp)
 1001224:	00001506 	br	100127c <parseData+0x788>
	        else if (p[0] == 'E') lon = 'E';
 1001228:	e0bfef17 	ldw	r2,-68(fp)
 100122c:	10800003 	ldbu	r2,0(r2)
 1001230:	10803fcc 	andi	r2,r2,255
 1001234:	1080201c 	xori	r2,r2,128
 1001238:	10bfe004 	addi	r2,r2,-128
 100123c:	10801158 	cmpnei	r2,r2,69
 1001240:	1000031e 	bne	r2,zero,1001250 <parseData+0x75c>
 1001244:	00801144 	movi	r2,69
 1001248:	d0a71005 	stb	r2,-25536(gp)
 100124c:	00000b06 	br	100127c <parseData+0x788>
	        else if (p[0] == ',') lon = 0;
 1001250:	e0bfef17 	ldw	r2,-68(fp)
 1001254:	10800003 	ldbu	r2,0(r2)
 1001258:	10803fcc 	andi	r2,r2,255
 100125c:	1080201c 	xori	r2,r2,128
 1001260:	10bfe004 	addi	r2,r2,-128
 1001264:	10800b18 	cmpnei	r2,r2,44
 1001268:	1000021e 	bne	r2,zero,1001274 <parseData+0x780>
 100126c:	d0271005 	stb	zero,-25536(gp)
 1001270:	00000206 	br	100127c <parseData+0x788>
	        else return 0;
 1001274:	0005883a 	mov	r2,zero
 1001278:	00026b06 	br	1001c28 <parseData+0x1134>
	      }

	      p = strchr(p, ',')+1;
 100127c:	e13fef17 	ldw	r4,-68(fp)
 1001280:	01400b04 	movi	r5,44
 1001284:	10096fc0 	call	10096fc <strchr>
 1001288:	10800044 	addi	r2,r2,1
 100128c:	e0bfef15 	stw	r2,-68(fp)
	         if (',' != *p)
 1001290:	e0bfef17 	ldw	r2,-68(fp)
 1001294:	10800003 	ldbu	r2,0(r2)
 1001298:	10803fcc 	andi	r2,r2,255
 100129c:	1080201c 	xori	r2,r2,128
 10012a0:	10bfe004 	addi	r2,r2,-128
 10012a4:	10800b20 	cmpeqi	r2,r2,44
 10012a8:	1000031e 	bne	r2,zero,10012b8 <parseData+0x7c4>
	         {
	           fixquality = atoi(p);
 10012ac:	e13fef17 	ldw	r4,-68(fp)
 10012b0:	1006ce40 	call	1006ce4 <atoi>
 10012b4:	d0a70215 	stw	r2,-25592(gp)
	         }

	         p = strchr(p, ',')+1;
 10012b8:	e13fef17 	ldw	r4,-68(fp)
 10012bc:	01400b04 	movi	r5,44
 10012c0:	10096fc0 	call	10096fc <strchr>
 10012c4:	10800044 	addi	r2,r2,1
 10012c8:	e0bfef15 	stw	r2,-68(fp)
	         if (',' != *p)
 10012cc:	e0bfef17 	ldw	r2,-68(fp)
 10012d0:	10800003 	ldbu	r2,0(r2)
 10012d4:	10803fcc 	andi	r2,r2,255
 10012d8:	1080201c 	xori	r2,r2,128
 10012dc:	10bfe004 	addi	r2,r2,-128
 10012e0:	10800b20 	cmpeqi	r2,r2,44
 10012e4:	1000031e 	bne	r2,zero,10012f4 <parseData+0x800>
	         {
	           satellites = atoi(p);
 10012e8:	e13fef17 	ldw	r4,-68(fp)
 10012ec:	1006ce40 	call	1006ce4 <atoi>
 10012f0:	d0a71215 	stw	r2,-25528(gp)
	         }

	         p = strchr(p, ',')+1;
 10012f4:	e13fef17 	ldw	r4,-68(fp)
 10012f8:	01400b04 	movi	r5,44
 10012fc:	10096fc0 	call	10096fc <strchr>
 1001300:	10800044 	addi	r2,r2,1
 1001304:	e0bfef15 	stw	r2,-68(fp)
	         if (',' != *p)
 1001308:	e0bfef17 	ldw	r2,-68(fp)
 100130c:	10800003 	ldbu	r2,0(r2)
 1001310:	10803fcc 	andi	r2,r2,255
 1001314:	1080201c 	xori	r2,r2,128
 1001318:	10bfe004 	addi	r2,r2,-128
 100131c:	10800b20 	cmpeqi	r2,r2,44
 1001320:	1000091e 	bne	r2,zero,1001348 <parseData+0x854>
	         {
	           HDOP = atof(p);
 1001324:	e13fef17 	ldw	r4,-68(fp)
 1001328:	1006cdc0 	call	1006cdc <atof>
 100132c:	100b883a 	mov	r5,r2
 1001330:	180d883a 	mov	r6,r3
 1001334:	2809883a 	mov	r4,r5
 1001338:	300b883a 	mov	r5,r6
 100133c:	1006ae00 	call	1006ae0 <__truncdfsf2>
 1001340:	1007883a 	mov	r3,r2
 1001344:	d0e72315 	stw	r3,-25460(gp)
	         }

	         p = strchr(p, ',')+1;
 1001348:	e13fef17 	ldw	r4,-68(fp)
 100134c:	01400b04 	movi	r5,44
 1001350:	10096fc0 	call	10096fc <strchr>
 1001354:	10800044 	addi	r2,r2,1
 1001358:	e0bfef15 	stw	r2,-68(fp)
	         if (',' != *p)
 100135c:	e0bfef17 	ldw	r2,-68(fp)
 1001360:	10800003 	ldbu	r2,0(r2)
 1001364:	10803fcc 	andi	r2,r2,255
 1001368:	1080201c 	xori	r2,r2,128
 100136c:	10bfe004 	addi	r2,r2,-128
 1001370:	10800b20 	cmpeqi	r2,r2,44
 1001374:	1000091e 	bne	r2,zero,100139c <parseData+0x8a8>
	         {
	           altitude = atof(p);
 1001378:	e13fef17 	ldw	r4,-68(fp)
 100137c:	1006cdc0 	call	1006cdc <atof>
 1001380:	100b883a 	mov	r5,r2
 1001384:	180d883a 	mov	r6,r3
 1001388:	2809883a 	mov	r4,r5
 100138c:	300b883a 	mov	r5,r6
 1001390:	1006ae00 	call	1006ae0 <__truncdfsf2>
 1001394:	1007883a 	mov	r3,r2
 1001398:	d0e71315 	stw	r3,-25524(gp)
	         }

	         p = strchr(p, ',')+1;
 100139c:	e13fef17 	ldw	r4,-68(fp)
 10013a0:	01400b04 	movi	r5,44
 10013a4:	10096fc0 	call	10096fc <strchr>
 10013a8:	10800044 	addi	r2,r2,1
 10013ac:	e0bfef15 	stw	r2,-68(fp)
	         p = strchr(p, ',')+1;
 10013b0:	e13fef17 	ldw	r4,-68(fp)
 10013b4:	01400b04 	movi	r5,44
 10013b8:	10096fc0 	call	10096fc <strchr>
 10013bc:	10800044 	addi	r2,r2,1
 10013c0:	e0bfef15 	stw	r2,-68(fp)
	         if (',' != *p)
 10013c4:	e0bfef17 	ldw	r2,-68(fp)
 10013c8:	10800003 	ldbu	r2,0(r2)
 10013cc:	10803fcc 	andi	r2,r2,255
 10013d0:	1080201c 	xori	r2,r2,128
 10013d4:	10bfe004 	addi	r2,r2,-128
 10013d8:	10800b20 	cmpeqi	r2,r2,44
 10013dc:	1000091e 	bne	r2,zero,1001404 <parseData+0x910>
	         {
	           geoidheight = atof(p);
 10013e0:	e13fef17 	ldw	r4,-68(fp)
 10013e4:	1006cdc0 	call	1006cdc <atof>
 10013e8:	100b883a 	mov	r5,r2
 10013ec:	180d883a 	mov	r6,r3
 10013f0:	2809883a 	mov	r4,r5
 10013f4:	300b883a 	mov	r5,r6
 10013f8:	1006ae00 	call	1006ae0 <__truncdfsf2>
 10013fc:	1007883a 	mov	r3,r2
 1001400:	d0e6fe15 	stw	r3,-25608(gp)
	         }
	         return 1;
 1001404:	00800044 	movi	r2,1
 1001408:	00020706 	br	1001c28 <parseData+0x1134>
	}


	if (strstr(data, "$GPRMC")) {
 100140c:	e13ffe17 	ldw	r4,-8(fp)
 1001410:	014040f4 	movhi	r5,259
 1001414:	296ffa04 	addi	r5,r5,-16408
 1001418:	100a4d00 	call	100a4d0 <strstr>
 100141c:	10020126 	beq	r2,zero,1001c24 <parseData+0x1130>
	   // found RMC
	    char *p = data;
 1001420:	e0bffe17 	ldw	r2,-8(fp)
 1001424:	e0bff015 	stw	r2,-64(fp)
	    format = "$GPRMC";
 1001428:	008040f4 	movhi	r2,259
 100142c:	10affa04 	addi	r2,r2,-16408
 1001430:	d0a70515 	stw	r2,-25580(gp)

	    // get time
	    p = strchr(p, ',')+1;
 1001434:	e13ff017 	ldw	r4,-64(fp)
 1001438:	01400b04 	movi	r5,44
 100143c:	10096fc0 	call	10096fc <strchr>
 1001440:	10800044 	addi	r2,r2,1
 1001444:	e0bff015 	stw	r2,-64(fp)
	    float timef = atof(p);
 1001448:	e13ff017 	ldw	r4,-64(fp)
 100144c:	1006cdc0 	call	1006cdc <atof>
 1001450:	100b883a 	mov	r5,r2
 1001454:	180d883a 	mov	r6,r3
 1001458:	2809883a 	mov	r4,r5
 100145c:	300b883a 	mov	r5,r6
 1001460:	1006ae00 	call	1006ae0 <__truncdfsf2>
 1001464:	1007883a 	mov	r3,r2
 1001468:	e0fff615 	stw	r3,-40(fp)
	    int time = timef;
 100146c:	e13ff617 	ldw	r4,-40(fp)
 1001470:	100552c0 	call	100552c <__fixsfsi>
 1001474:	e0bff715 	stw	r2,-36(fp)
	    hour = time / 10000;
 1001478:	e0bff717 	ldw	r2,-36(fp)
 100147c:	1009883a 	mov	r4,r2
 1001480:	0149c404 	movi	r5,10000
 1001484:	10041c80 	call	10041c8 <__divsi3>
 1001488:	d0a70e15 	stw	r2,-25544(gp)
	    minute = (time % 10000) / 100;
 100148c:	e0bff717 	ldw	r2,-36(fp)
 1001490:	1009883a 	mov	r4,r2
 1001494:	0149c404 	movi	r5,10000
 1001498:	100421c0 	call	100421c <__modsi3>
 100149c:	1009883a 	mov	r4,r2
 10014a0:	01401904 	movi	r5,100
 10014a4:	10041c80 	call	10041c8 <__divsi3>
 10014a8:	d0a70915 	stw	r2,-25564(gp)
	    seconds = (time % 100);
 10014ac:	e0bff717 	ldw	r2,-36(fp)
 10014b0:	1009883a 	mov	r4,r2
 10014b4:	01401904 	movi	r5,100
 10014b8:	100421c0 	call	100421c <__modsi3>
 10014bc:	d0a71615 	stw	r2,-25512(gp)

	    milliseconds = fmod(timef, 1.0) * 1000;
 10014c0:	e13ff617 	ldw	r4,-40(fp)
 10014c4:	10069d00 	call	10069d0 <__extendsfdf2>
 10014c8:	100b883a 	mov	r5,r2
 10014cc:	180d883a 	mov	r6,r3
 10014d0:	2809883a 	mov	r4,r5
 10014d4:	300b883a 	mov	r5,r6
 10014d8:	000d883a 	mov	r6,zero
 10014dc:	01cffc34 	movhi	r7,16368
 10014e0:	1003b4c0 	call	1003b4c <fmod>
 10014e4:	100b883a 	mov	r5,r2
 10014e8:	180d883a 	mov	r6,r3
 10014ec:	2809883a 	mov	r4,r5
 10014f0:	300b883a 	mov	r5,r6
 10014f4:	000d883a 	mov	r6,zero
 10014f8:	01d023f4 	movhi	r7,16527
 10014fc:	39d00004 	addi	r7,r7,16384
 1001500:	10060dc0 	call	10060dc <__muldf3>
 1001504:	1009883a 	mov	r4,r2
 1001508:	180b883a 	mov	r5,r3
 100150c:	2005883a 	mov	r2,r4
 1001510:	2807883a 	mov	r3,r5
 1001514:	1009883a 	mov	r4,r2
 1001518:	180b883a 	mov	r5,r3
 100151c:	10069480 	call	1006948 <__fixdfsi>
 1001520:	d0a70c15 	stw	r2,-25552(gp)

	    p = strchr(p, ',')+1;
 1001524:	e13ff017 	ldw	r4,-64(fp)
 1001528:	01400b04 	movi	r5,44
 100152c:	10096fc0 	call	10096fc <strchr>
 1001530:	10800044 	addi	r2,r2,1
 1001534:	e0bff015 	stw	r2,-64(fp)
	    // Serial.println(p);
	    if (p[0] == 'A')
 1001538:	e0bff017 	ldw	r2,-64(fp)
 100153c:	10800003 	ldbu	r2,0(r2)
 1001540:	10803fcc 	andi	r2,r2,255
 1001544:	1080201c 	xori	r2,r2,128
 1001548:	10bfe004 	addi	r2,r2,-128
 100154c:	10801058 	cmpnei	r2,r2,65
 1001550:	1000031e 	bne	r2,zero,1001560 <parseData+0xa6c>
	      fix = 1;
 1001554:	00800044 	movi	r2,1
 1001558:	d0a71815 	stw	r2,-25504(gp)
 100155c:	00000b06 	br	100158c <parseData+0xa98>
	    else if (p[0] == 'V')
 1001560:	e0bff017 	ldw	r2,-64(fp)
 1001564:	10800003 	ldbu	r2,0(r2)
 1001568:	10803fcc 	andi	r2,r2,255
 100156c:	1080201c 	xori	r2,r2,128
 1001570:	10bfe004 	addi	r2,r2,-128
 1001574:	10801598 	cmpnei	r2,r2,86
 1001578:	1000021e 	bne	r2,zero,1001584 <parseData+0xa90>
	      fix = 0;
 100157c:	d0271815 	stw	zero,-25504(gp)
 1001580:	00000206 	br	100158c <parseData+0xa98>
	    else
	      return 0;
 1001584:	0005883a 	mov	r2,zero
 1001588:	0001a706 	br	1001c28 <parseData+0x1134>

	    // parse out latitude
	    p = strchr(p, ',')+1;
 100158c:	e13ff017 	ldw	r4,-64(fp)
 1001590:	01400b04 	movi	r5,44
 1001594:	10096fc0 	call	10096fc <strchr>
 1001598:	10800044 	addi	r2,r2,1
 100159c:	e0bff015 	stw	r2,-64(fp)
	    if (',' != *p)
 10015a0:	e0bff017 	ldw	r2,-64(fp)
 10015a4:	10800003 	ldbu	r2,0(r2)
 10015a8:	10803fcc 	andi	r2,r2,255
 10015ac:	1080201c 	xori	r2,r2,128
 10015b0:	10bfe004 	addi	r2,r2,-128
 10015b4:	10800b20 	cmpeqi	r2,r2,44
 10015b8:	1000691e 	bne	r2,zero,1001760 <parseData+0xc6c>
	    {
	      strncpy(degreebuff, p, 2);
 10015bc:	e0bffb04 	addi	r2,fp,-20
 10015c0:	1009883a 	mov	r4,r2
 10015c4:	e17ff017 	ldw	r5,-64(fp)
 10015c8:	01800084 	movi	r6,2
 10015cc:	1009f740 	call	1009f74 <strncpy>
	      p += 2;
 10015d0:	e0bff017 	ldw	r2,-64(fp)
 10015d4:	10800084 	addi	r2,r2,2
 10015d8:	e0bff015 	stw	r2,-64(fp)
	      degreebuff[2] = '\0';
 10015dc:	e03ffb85 	stb	zero,-18(fp)
	      long degree = atol(degreebuff) * 10000000;
 10015e0:	e0bffb04 	addi	r2,fp,-20
 10015e4:	1009883a 	mov	r4,r2
 10015e8:	1006cfc0 	call	1006cfc <atol>
 10015ec:	1009883a 	mov	r4,r2
 10015f0:	01402674 	movhi	r5,153
 10015f4:	2965a004 	addi	r5,r5,-27008
 10015f8:	10042880 	call	1004288 <__mulsi3>
 10015fc:	e0bff815 	stw	r2,-32(fp)
	      strncpy(degreebuff, p, 2); // minutes
 1001600:	e0bffb04 	addi	r2,fp,-20
 1001604:	1009883a 	mov	r4,r2
 1001608:	e17ff017 	ldw	r5,-64(fp)
 100160c:	01800084 	movi	r6,2
 1001610:	1009f740 	call	1009f74 <strncpy>
	      p += 3; // skip decimal point
 1001614:	e0bff017 	ldw	r2,-64(fp)
 1001618:	108000c4 	addi	r2,r2,3
 100161c:	e0bff015 	stw	r2,-64(fp)
	      strncpy(degreebuff + 2, p, 4);
 1001620:	e0bffb04 	addi	r2,fp,-20
 1001624:	10800084 	addi	r2,r2,2
 1001628:	1009883a 	mov	r4,r2
 100162c:	e17ff017 	ldw	r5,-64(fp)
 1001630:	01800104 	movi	r6,4
 1001634:	1009f740 	call	1009f74 <strncpy>
	      degreebuff[6] = '\0';
 1001638:	e03ffc85 	stb	zero,-14(fp)
	      long minutes = 50 * atol(degreebuff) / 3;
 100163c:	e0bffb04 	addi	r2,fp,-20
 1001640:	1009883a 	mov	r4,r2
 1001644:	1006cfc0 	call	1006cfc <atol>
 1001648:	1009883a 	mov	r4,r2
 100164c:	01400c84 	movi	r5,50
 1001650:	10042880 	call	1004288 <__mulsi3>
 1001654:	1009883a 	mov	r4,r2
 1001658:	014000c4 	movi	r5,3
 100165c:	10041c80 	call	10041c8 <__divsi3>
 1001660:	e0bff915 	stw	r2,-28(fp)
	      latitude_fixed = degree + minutes;
 1001664:	e0fff817 	ldw	r3,-32(fp)
 1001668:	e0bff917 	ldw	r2,-28(fp)
 100166c:	1885883a 	add	r2,r3,r2
 1001670:	d0a70b15 	stw	r2,-25556(gp)
	      latitude = degree / 100000 + minutes * 0.000006F;
 1001674:	e0bff817 	ldw	r2,-32(fp)
 1001678:	1009883a 	mov	r4,r2
 100167c:	014000b4 	movhi	r5,2
 1001680:	2961a804 	addi	r5,r5,-31072
 1001684:	10041c80 	call	10041c8 <__divsi3>
 1001688:	1009883a 	mov	r4,r2
 100168c:	10055a40 	call	10055a4 <__floatsisf>
 1001690:	1021883a 	mov	r16,r2
 1001694:	e13ff917 	ldw	r4,-28(fp)
 1001698:	10055a40 	call	10055a4 <__floatsisf>
 100169c:	1007883a 	mov	r3,r2
 10016a0:	1809883a 	mov	r4,r3
 10016a4:	014db274 	movhi	r5,14025
 10016a8:	2954e704 	addi	r5,r5,21404
 10016ac:	1004be00 	call	1004be0 <__mulsf3>
 10016b0:	1007883a 	mov	r3,r2
 10016b4:	1805883a 	mov	r2,r3
 10016b8:	8009883a 	mov	r4,r16
 10016bc:	100b883a 	mov	r5,r2
 10016c0:	10042b00 	call	10042b0 <__addsf3>
 10016c4:	1007883a 	mov	r3,r2
 10016c8:	1805883a 	mov	r2,r3
 10016cc:	d0a71e15 	stw	r2,-25480(gp)
	      latitudeDegrees = (latitude-100*(latitude/100))/60.0;
 10016d0:	d4271e17 	ldw	r16,-25480(gp)
 10016d4:	d0a71e17 	ldw	r2,-25480(gp)
 10016d8:	1009883a 	mov	r4,r2
 10016dc:	0150b234 	movhi	r5,17096
 10016e0:	10047900 	call	1004790 <__divsf3>
 10016e4:	1007883a 	mov	r3,r2
 10016e8:	1805883a 	mov	r2,r3
 10016ec:	1009883a 	mov	r4,r2
 10016f0:	0150b234 	movhi	r5,17096
 10016f4:	1004be00 	call	1004be0 <__mulsf3>
 10016f8:	1007883a 	mov	r3,r2
 10016fc:	1805883a 	mov	r2,r3
 1001700:	8009883a 	mov	r4,r16
 1001704:	100b883a 	mov	r5,r2
 1001708:	10050300 	call	1005030 <__subsf3>
 100170c:	1007883a 	mov	r3,r2
 1001710:	1805883a 	mov	r2,r3
 1001714:	1009883a 	mov	r4,r2
 1001718:	01509c34 	movhi	r5,17008
 100171c:	10047900 	call	1004790 <__divsf3>
 1001720:	1007883a 	mov	r3,r2
 1001724:	1805883a 	mov	r2,r3
 1001728:	d0a71b15 	stw	r2,-25492(gp)
	      latitudeDegrees += (latitude/100);
 100172c:	d0a71e17 	ldw	r2,-25480(gp)
 1001730:	1009883a 	mov	r4,r2
 1001734:	0150b234 	movhi	r5,17096
 1001738:	10047900 	call	1004790 <__divsf3>
 100173c:	1009883a 	mov	r4,r2
 1001740:	2007883a 	mov	r3,r4
 1001744:	d0a71b17 	ldw	r2,-25492(gp)
 1001748:	1809883a 	mov	r4,r3
 100174c:	100b883a 	mov	r5,r2
 1001750:	10042b00 	call	10042b0 <__addsf3>
 1001754:	1007883a 	mov	r3,r2
 1001758:	1805883a 	mov	r2,r3
 100175c:	d0a71b15 	stw	r2,-25492(gp)
	    }

	    p = strchr(p, ',')+1;
 1001760:	e13ff017 	ldw	r4,-64(fp)
 1001764:	01400b04 	movi	r5,44
 1001768:	10096fc0 	call	10096fc <strchr>
 100176c:	10800044 	addi	r2,r2,1
 1001770:	e0bff015 	stw	r2,-64(fp)
	    if (',' != *p)
 1001774:	e0bff017 	ldw	r2,-64(fp)
 1001778:	10800003 	ldbu	r2,0(r2)
 100177c:	10803fcc 	andi	r2,r2,255
 1001780:	1080201c 	xori	r2,r2,128
 1001784:	10bfe004 	addi	r2,r2,-128
 1001788:	10800b20 	cmpeqi	r2,r2,44
 100178c:	1000291e 	bne	r2,zero,1001834 <parseData+0xd40>
	    {
	      if (p[0] == 'S') latitudeDegrees *= -1.0;
 1001790:	e0bff017 	ldw	r2,-64(fp)
 1001794:	10800003 	ldbu	r2,0(r2)
 1001798:	10803fcc 	andi	r2,r2,255
 100179c:	1080201c 	xori	r2,r2,128
 10017a0:	10bfe004 	addi	r2,r2,-128
 10017a4:	108014d8 	cmpnei	r2,r2,83
 10017a8:	1000031e 	bne	r2,zero,10017b8 <parseData+0xcc4>
 10017ac:	d0a71b17 	ldw	r2,-25492(gp)
 10017b0:	10a0003c 	xorhi	r2,r2,32768
 10017b4:	d0a71b15 	stw	r2,-25492(gp)
	      if (p[0] == 'N') lat = 'N';
 10017b8:	e0bff017 	ldw	r2,-64(fp)
 10017bc:	10800003 	ldbu	r2,0(r2)
 10017c0:	10803fcc 	andi	r2,r2,255
 10017c4:	1080201c 	xori	r2,r2,128
 10017c8:	10bfe004 	addi	r2,r2,-128
 10017cc:	10801398 	cmpnei	r2,r2,78
 10017d0:	1000031e 	bne	r2,zero,10017e0 <parseData+0xcec>
 10017d4:	00801384 	movi	r2,78
 10017d8:	d0a72405 	stb	r2,-25456(gp)
 10017dc:	00001506 	br	1001834 <parseData+0xd40>
	      else if (p[0] == 'S') lat = 'S';
 10017e0:	e0bff017 	ldw	r2,-64(fp)
 10017e4:	10800003 	ldbu	r2,0(r2)
 10017e8:	10803fcc 	andi	r2,r2,255
 10017ec:	1080201c 	xori	r2,r2,128
 10017f0:	10bfe004 	addi	r2,r2,-128
 10017f4:	108014d8 	cmpnei	r2,r2,83
 10017f8:	1000031e 	bne	r2,zero,1001808 <parseData+0xd14>
 10017fc:	008014c4 	movi	r2,83
 1001800:	d0a72405 	stb	r2,-25456(gp)
 1001804:	00000b06 	br	1001834 <parseData+0xd40>
	      else if (p[0] == ',') lat = 0;
 1001808:	e0bff017 	ldw	r2,-64(fp)
 100180c:	10800003 	ldbu	r2,0(r2)
 1001810:	10803fcc 	andi	r2,r2,255
 1001814:	1080201c 	xori	r2,r2,128
 1001818:	10bfe004 	addi	r2,r2,-128
 100181c:	10800b18 	cmpnei	r2,r2,44
 1001820:	1000021e 	bne	r2,zero,100182c <parseData+0xd38>
 1001824:	d0272405 	stb	zero,-25456(gp)
 1001828:	00000206 	br	1001834 <parseData+0xd40>
	      else return 0;
 100182c:	0005883a 	mov	r2,zero
 1001830:	0000fd06 	br	1001c28 <parseData+0x1134>
	    }

	    // parse out longitude
	    p = strchr(p, ',')+1;
 1001834:	e13ff017 	ldw	r4,-64(fp)
 1001838:	01400b04 	movi	r5,44
 100183c:	10096fc0 	call	10096fc <strchr>
 1001840:	10800044 	addi	r2,r2,1
 1001844:	e0bff015 	stw	r2,-64(fp)
	    if (',' != *p)
 1001848:	e0bff017 	ldw	r2,-64(fp)
 100184c:	10800003 	ldbu	r2,0(r2)
 1001850:	10803fcc 	andi	r2,r2,255
 1001854:	1080201c 	xori	r2,r2,128
 1001858:	10bfe004 	addi	r2,r2,-128
 100185c:	10800b20 	cmpeqi	r2,r2,44
 1001860:	1000691e 	bne	r2,zero,1001a08 <parseData+0xf14>
	    {
	      strncpy(degreebuff, p, 3);
 1001864:	e0bffb04 	addi	r2,fp,-20
 1001868:	1009883a 	mov	r4,r2
 100186c:	e17ff017 	ldw	r5,-64(fp)
 1001870:	018000c4 	movi	r6,3
 1001874:	1009f740 	call	1009f74 <strncpy>
	      p += 3;
 1001878:	e0bff017 	ldw	r2,-64(fp)
 100187c:	108000c4 	addi	r2,r2,3
 1001880:	e0bff015 	stw	r2,-64(fp)
	      degreebuff[3] = '\0';
 1001884:	e03ffbc5 	stb	zero,-17(fp)
	      degree = atol(degreebuff) * 10000000;
 1001888:	e0bffb04 	addi	r2,fp,-20
 100188c:	1009883a 	mov	r4,r2
 1001890:	1006cfc0 	call	1006cfc <atol>
 1001894:	1009883a 	mov	r4,r2
 1001898:	01402674 	movhi	r5,153
 100189c:	2965a004 	addi	r5,r5,-27008
 10018a0:	10042880 	call	1004288 <__mulsi3>
 10018a4:	e0bff415 	stw	r2,-48(fp)
	      strncpy(degreebuff, p, 2); // minutes
 10018a8:	e0bffb04 	addi	r2,fp,-20
 10018ac:	1009883a 	mov	r4,r2
 10018b0:	e17ff017 	ldw	r5,-64(fp)
 10018b4:	01800084 	movi	r6,2
 10018b8:	1009f740 	call	1009f74 <strncpy>
	      p += 3; // skip decimal point
 10018bc:	e0bff017 	ldw	r2,-64(fp)
 10018c0:	108000c4 	addi	r2,r2,3
 10018c4:	e0bff015 	stw	r2,-64(fp)
	      strncpy(degreebuff + 2, p, 4);
 10018c8:	e0bffb04 	addi	r2,fp,-20
 10018cc:	10800084 	addi	r2,r2,2
 10018d0:	1009883a 	mov	r4,r2
 10018d4:	e17ff017 	ldw	r5,-64(fp)
 10018d8:	01800104 	movi	r6,4
 10018dc:	1009f740 	call	1009f74 <strncpy>
	      degreebuff[6] = '\0';
 10018e0:	e03ffc85 	stb	zero,-14(fp)
	      minutes = 50 * atol(degreebuff) / 3;
 10018e4:	e0bffb04 	addi	r2,fp,-20
 10018e8:	1009883a 	mov	r4,r2
 10018ec:	1006cfc0 	call	1006cfc <atol>
 10018f0:	1009883a 	mov	r4,r2
 10018f4:	01400c84 	movi	r5,50
 10018f8:	10042880 	call	1004288 <__mulsi3>
 10018fc:	1009883a 	mov	r4,r2
 1001900:	014000c4 	movi	r5,3
 1001904:	10041c80 	call	10041c8 <__divsi3>
 1001908:	e0bff515 	stw	r2,-44(fp)
	      longitude_fixed = degree + minutes;
 100190c:	e0fff417 	ldw	r3,-48(fp)
 1001910:	e0bff517 	ldw	r2,-44(fp)
 1001914:	1885883a 	add	r2,r3,r2
 1001918:	d0a71415 	stw	r2,-25520(gp)
	      longitude = degree / 100000 + minutes * 0.000006F;
 100191c:	e0bff417 	ldw	r2,-48(fp)
 1001920:	1009883a 	mov	r4,r2
 1001924:	014000b4 	movhi	r5,2
 1001928:	2961a804 	addi	r5,r5,-31072
 100192c:	10041c80 	call	10041c8 <__divsi3>
 1001930:	1009883a 	mov	r4,r2
 1001934:	10055a40 	call	10055a4 <__floatsisf>
 1001938:	1021883a 	mov	r16,r2
 100193c:	e13ff517 	ldw	r4,-44(fp)
 1001940:	10055a40 	call	10055a4 <__floatsisf>
 1001944:	1007883a 	mov	r3,r2
 1001948:	1809883a 	mov	r4,r3
 100194c:	014db274 	movhi	r5,14025
 1001950:	2954e704 	addi	r5,r5,21404
 1001954:	1004be00 	call	1004be0 <__mulsf3>
 1001958:	1007883a 	mov	r3,r2
 100195c:	1805883a 	mov	r2,r3
 1001960:	8009883a 	mov	r4,r16
 1001964:	100b883a 	mov	r5,r2
 1001968:	10042b00 	call	10042b0 <__addsf3>
 100196c:	1007883a 	mov	r3,r2
 1001970:	1805883a 	mov	r2,r3
 1001974:	d0a71115 	stw	r2,-25532(gp)
	      longitudeDegrees = (longitude-100*(longitude/100))/60.0;
 1001978:	d4271117 	ldw	r16,-25532(gp)
 100197c:	d0a71117 	ldw	r2,-25532(gp)
 1001980:	1009883a 	mov	r4,r2
 1001984:	0150b234 	movhi	r5,17096
 1001988:	10047900 	call	1004790 <__divsf3>
 100198c:	1007883a 	mov	r3,r2
 1001990:	1805883a 	mov	r2,r3
 1001994:	1009883a 	mov	r4,r2
 1001998:	0150b234 	movhi	r5,17096
 100199c:	1004be00 	call	1004be0 <__mulsf3>
 10019a0:	1007883a 	mov	r3,r2
 10019a4:	1805883a 	mov	r2,r3
 10019a8:	8009883a 	mov	r4,r16
 10019ac:	100b883a 	mov	r5,r2
 10019b0:	10050300 	call	1005030 <__subsf3>
 10019b4:	1007883a 	mov	r3,r2
 10019b8:	1805883a 	mov	r2,r3
 10019bc:	1009883a 	mov	r4,r2
 10019c0:	01509c34 	movhi	r5,17008
 10019c4:	10047900 	call	1004790 <__divsf3>
 10019c8:	1007883a 	mov	r3,r2
 10019cc:	1805883a 	mov	r2,r3
 10019d0:	d0a71915 	stw	r2,-25500(gp)
	      longitudeDegrees += (longitude/100);
 10019d4:	d0a71117 	ldw	r2,-25532(gp)
 10019d8:	1009883a 	mov	r4,r2
 10019dc:	0150b234 	movhi	r5,17096
 10019e0:	10047900 	call	1004790 <__divsf3>
 10019e4:	1009883a 	mov	r4,r2
 10019e8:	2007883a 	mov	r3,r4
 10019ec:	d0a71917 	ldw	r2,-25500(gp)
 10019f0:	1809883a 	mov	r4,r3
 10019f4:	100b883a 	mov	r5,r2
 10019f8:	10042b00 	call	10042b0 <__addsf3>
 10019fc:	1007883a 	mov	r3,r2
 1001a00:	1805883a 	mov	r2,r3
 1001a04:	d0a71915 	stw	r2,-25500(gp)
	    }

	    p = strchr(p, ',')+1;
 1001a08:	e13ff017 	ldw	r4,-64(fp)
 1001a0c:	01400b04 	movi	r5,44
 1001a10:	10096fc0 	call	10096fc <strchr>
 1001a14:	10800044 	addi	r2,r2,1
 1001a18:	e0bff015 	stw	r2,-64(fp)
	    if (',' != *p)
 1001a1c:	e0bff017 	ldw	r2,-64(fp)
 1001a20:	10800003 	ldbu	r2,0(r2)
 1001a24:	10803fcc 	andi	r2,r2,255
 1001a28:	1080201c 	xori	r2,r2,128
 1001a2c:	10bfe004 	addi	r2,r2,-128
 1001a30:	10800b20 	cmpeqi	r2,r2,44
 1001a34:	1000291e 	bne	r2,zero,1001adc <parseData+0xfe8>
	    {
	      if (p[0] == 'W') longitudeDegrees *= -1.0;
 1001a38:	e0bff017 	ldw	r2,-64(fp)
 1001a3c:	10800003 	ldbu	r2,0(r2)
 1001a40:	10803fcc 	andi	r2,r2,255
 1001a44:	1080201c 	xori	r2,r2,128
 1001a48:	10bfe004 	addi	r2,r2,-128
 1001a4c:	108015d8 	cmpnei	r2,r2,87
 1001a50:	1000031e 	bne	r2,zero,1001a60 <parseData+0xf6c>
 1001a54:	d0a71917 	ldw	r2,-25500(gp)
 1001a58:	10a0003c 	xorhi	r2,r2,32768
 1001a5c:	d0a71915 	stw	r2,-25500(gp)
	      if (p[0] == 'W') lon = 'W';
 1001a60:	e0bff017 	ldw	r2,-64(fp)
 1001a64:	10800003 	ldbu	r2,0(r2)
 1001a68:	10803fcc 	andi	r2,r2,255
 1001a6c:	1080201c 	xori	r2,r2,128
 1001a70:	10bfe004 	addi	r2,r2,-128
 1001a74:	108015d8 	cmpnei	r2,r2,87
 1001a78:	1000031e 	bne	r2,zero,1001a88 <parseData+0xf94>
 1001a7c:	008015c4 	movi	r2,87
 1001a80:	d0a71005 	stb	r2,-25536(gp)
 1001a84:	00001506 	br	1001adc <parseData+0xfe8>
	      else if (p[0] == 'E') lon = 'E';
 1001a88:	e0bff017 	ldw	r2,-64(fp)
 1001a8c:	10800003 	ldbu	r2,0(r2)
 1001a90:	10803fcc 	andi	r2,r2,255
 1001a94:	1080201c 	xori	r2,r2,128
 1001a98:	10bfe004 	addi	r2,r2,-128
 1001a9c:	10801158 	cmpnei	r2,r2,69
 1001aa0:	1000031e 	bne	r2,zero,1001ab0 <parseData+0xfbc>
 1001aa4:	00801144 	movi	r2,69
 1001aa8:	d0a71005 	stb	r2,-25536(gp)
 1001aac:	00000b06 	br	1001adc <parseData+0xfe8>
	      else if (p[0] == ',') lon = 0;
 1001ab0:	e0bff017 	ldw	r2,-64(fp)
 1001ab4:	10800003 	ldbu	r2,0(r2)
 1001ab8:	10803fcc 	andi	r2,r2,255
 1001abc:	1080201c 	xori	r2,r2,128
 1001ac0:	10bfe004 	addi	r2,r2,-128
 1001ac4:	10800b18 	cmpnei	r2,r2,44
 1001ac8:	1000021e 	bne	r2,zero,1001ad4 <parseData+0xfe0>
 1001acc:	d0271005 	stb	zero,-25536(gp)
 1001ad0:	00000206 	br	1001adc <parseData+0xfe8>
	      else return 0;
 1001ad4:	0005883a 	mov	r2,zero
 1001ad8:	00005306 	br	1001c28 <parseData+0x1134>
	    }
	    // speed
	    p = strchr(p, ',')+1;
 1001adc:	e13ff017 	ldw	r4,-64(fp)
 1001ae0:	01400b04 	movi	r5,44
 1001ae4:	10096fc0 	call	10096fc <strchr>
 1001ae8:	10800044 	addi	r2,r2,1
 1001aec:	e0bff015 	stw	r2,-64(fp)
	    if (',' != *p)
 1001af0:	e0bff017 	ldw	r2,-64(fp)
 1001af4:	10800003 	ldbu	r2,0(r2)
 1001af8:	10803fcc 	andi	r2,r2,255
 1001afc:	1080201c 	xori	r2,r2,128
 1001b00:	10bfe004 	addi	r2,r2,-128
 1001b04:	10800b20 	cmpeqi	r2,r2,44
 1001b08:	1000091e 	bne	r2,zero,1001b30 <parseData+0x103c>
	    {
	      speed = atof(p);
 1001b0c:	e13ff017 	ldw	r4,-64(fp)
 1001b10:	1006cdc0 	call	1006cdc <atof>
 1001b14:	100b883a 	mov	r5,r2
 1001b18:	180d883a 	mov	r6,r3
 1001b1c:	2809883a 	mov	r4,r5
 1001b20:	300b883a 	mov	r5,r6
 1001b24:	1006ae00 	call	1006ae0 <__truncdfsf2>
 1001b28:	1007883a 	mov	r3,r2
 1001b2c:	d0e72115 	stw	r3,-25468(gp)
	    }

	    // angle
	    p = strchr(p, ',')+1;
 1001b30:	e13ff017 	ldw	r4,-64(fp)
 1001b34:	01400b04 	movi	r5,44
 1001b38:	10096fc0 	call	10096fc <strchr>
 1001b3c:	10800044 	addi	r2,r2,1
 1001b40:	e0bff015 	stw	r2,-64(fp)
	    if (',' != *p)
 1001b44:	e0bff017 	ldw	r2,-64(fp)
 1001b48:	10800003 	ldbu	r2,0(r2)
 1001b4c:	10803fcc 	andi	r2,r2,255
 1001b50:	1080201c 	xori	r2,r2,128
 1001b54:	10bfe004 	addi	r2,r2,-128
 1001b58:	10800b20 	cmpeqi	r2,r2,44
 1001b5c:	1000091e 	bne	r2,zero,1001b84 <parseData+0x1090>
	    {
	      angle = atof(p);
 1001b60:	e13ff017 	ldw	r4,-64(fp)
 1001b64:	1006cdc0 	call	1006cdc <atof>
 1001b68:	100b883a 	mov	r5,r2
 1001b6c:	180d883a 	mov	r6,r3
 1001b70:	2809883a 	mov	r4,r5
 1001b74:	300b883a 	mov	r5,r6
 1001b78:	1006ae00 	call	1006ae0 <__truncdfsf2>
 1001b7c:	1007883a 	mov	r3,r2
 1001b80:	d0e70f15 	stw	r3,-25540(gp)
	    }

	    p = strchr(p, ',')+1;
 1001b84:	e13ff017 	ldw	r4,-64(fp)
 1001b88:	01400b04 	movi	r5,44
 1001b8c:	10096fc0 	call	10096fc <strchr>
 1001b90:	10800044 	addi	r2,r2,1
 1001b94:	e0bff015 	stw	r2,-64(fp)
	    if (',' != *p)
 1001b98:	e0bff017 	ldw	r2,-64(fp)
 1001b9c:	10800003 	ldbu	r2,0(r2)
 1001ba0:	10803fcc 	andi	r2,r2,255
 1001ba4:	1080201c 	xori	r2,r2,128
 1001ba8:	10bfe004 	addi	r2,r2,-128
 1001bac:	10800b20 	cmpeqi	r2,r2,44
 1001bb0:	10001a1e 	bne	r2,zero,1001c1c <parseData+0x1128>
	    {
	      int fulldate = atof(p);
 1001bb4:	e13ff017 	ldw	r4,-64(fp)
 1001bb8:	1006cdc0 	call	1006cdc <atof>
 1001bbc:	100b883a 	mov	r5,r2
 1001bc0:	180d883a 	mov	r6,r3
 1001bc4:	2809883a 	mov	r4,r5
 1001bc8:	300b883a 	mov	r5,r6
 1001bcc:	10069480 	call	1006948 <__fixdfsi>
 1001bd0:	e0bffa15 	stw	r2,-24(fp)
	      day = fulldate / 10000;
 1001bd4:	e0bffa17 	ldw	r2,-24(fp)
 1001bd8:	1009883a 	mov	r4,r2
 1001bdc:	0149c404 	movi	r5,10000
 1001be0:	10041c80 	call	10041c8 <__divsi3>
 1001be4:	d0a71f15 	stw	r2,-25476(gp)
	      month = (fulldate % 10000) / 100;
 1001be8:	e0bffa17 	ldw	r2,-24(fp)
 1001bec:	1009883a 	mov	r4,r2
 1001bf0:	0149c404 	movi	r5,10000
 1001bf4:	100421c0 	call	100421c <__modsi3>
 1001bf8:	1009883a 	mov	r4,r2
 1001bfc:	01401904 	movi	r5,100
 1001c00:	10041c80 	call	10041c8 <__divsi3>
 1001c04:	d0a70715 	stw	r2,-25572(gp)
	      year = (fulldate % 100);
 1001c08:	e0bffa17 	ldw	r2,-24(fp)
 1001c0c:	1009883a 	mov	r4,r2
 1001c10:	01401904 	movi	r5,100
 1001c14:	100421c0 	call	100421c <__modsi3>
 1001c18:	d0a71c15 	stw	r2,-25488(gp)
	    }
	    // we dont parse the remaining, yet!
	    return 1;
 1001c1c:	00800044 	movi	r2,1
 1001c20:	00000106 	br	1001c28 <parseData+0x1134>
	  }

	return 0;
 1001c24:	0005883a 	mov	r2,zero
}
 1001c28:	e6ffff04 	addi	sp,fp,-4
 1001c2c:	dfc00217 	ldw	ra,8(sp)
 1001c30:	df000117 	ldw	fp,4(sp)
 1001c34:	dc000017 	ldw	r16,0(sp)
 1001c38:	dec00304 	addi	sp,sp,12
 1001c3c:	f800283a 	ret

01001c40 <parseHex>:


int parseHex(char c){
 1001c40:	defffb04 	addi	sp,sp,-20
 1001c44:	df000415 	stw	fp,16(sp)
 1001c48:	df000404 	addi	fp,sp,16
 1001c4c:	2005883a 	mov	r2,r4
 1001c50:	e0bfff05 	stb	r2,-4(fp)

	if(c < '0')
 1001c54:	e0bfff07 	ldb	r2,-4(fp)
 1001c58:	10800c08 	cmpgei	r2,r2,48
 1001c5c:	1000021e 	bne	r2,zero,1001c68 <parseHex+0x28>
		return 0;
 1001c60:	0005883a 	mov	r2,zero
 1001c64:	00001906 	br	1001ccc <parseHex+0x8c>
	if(c <= '9')
 1001c68:	e0bfff07 	ldb	r2,-4(fp)
 1001c6c:	10800e88 	cmpgei	r2,r2,58
 1001c70:	1000051e 	bne	r2,zero,1001c88 <parseHex+0x48>
	{
		int i = c - '0';
 1001c74:	e0bfff07 	ldb	r2,-4(fp)
 1001c78:	10bff404 	addi	r2,r2,-48
 1001c7c:	e0bffc15 	stw	r2,-16(fp)
		return i;
 1001c80:	e0bffc17 	ldw	r2,-16(fp)
 1001c84:	00001106 	br	1001ccc <parseHex+0x8c>
	}
	if(c < 'A')
 1001c88:	e0bfff07 	ldb	r2,-4(fp)
 1001c8c:	10801048 	cmpgei	r2,r2,65
 1001c90:	1000021e 	bne	r2,zero,1001c9c <parseHex+0x5c>
		return 0;
 1001c94:	0005883a 	mov	r2,zero
 1001c98:	00000c06 	br	1001ccc <parseHex+0x8c>
	if(c <= 'F') {
 1001c9c:	e0bfff07 	ldb	r2,-4(fp)
 1001ca0:	108011c8 	cmpgei	r2,r2,71
 1001ca4:	1000081e 	bne	r2,zero,1001cc8 <parseHex+0x88>
		int i = c - 'A';
 1001ca8:	e0bfff07 	ldb	r2,-4(fp)
 1001cac:	10bfefc4 	addi	r2,r2,-65
 1001cb0:	e0bffd15 	stw	r2,-12(fp)
		int j = i + 10;
 1001cb4:	e0bffd17 	ldw	r2,-12(fp)
 1001cb8:	10800284 	addi	r2,r2,10
 1001cbc:	e0bffe15 	stw	r2,-8(fp)
		return j;
 1001cc0:	e0bffe17 	ldw	r2,-8(fp)
 1001cc4:	00000106 	br	1001ccc <parseHex+0x8c>

	}
	return 0;
 1001cc8:	0005883a 	mov	r2,zero

}
 1001ccc:	e037883a 	mov	sp,fp
 1001cd0:	df000017 	ldw	fp,0(sp)
 1001cd4:	dec00104 	addi	sp,sp,4
 1001cd8:	f800283a 	ret

01001cdc <waitForSentence>:


int waitForSentence(const char *data) {
 1001cdc:	defff604 	addi	sp,sp,-40
 1001ce0:	dfc00915 	stw	ra,36(sp)
 1001ce4:	df000815 	stw	fp,32(sp)
 1001ce8:	df000804 	addi	fp,sp,32
 1001cec:	e13fff15 	stw	r4,-4(fp)
	  char str[20];

	  int i=0;
 1001cf0:	e03ff815 	stw	zero,-32(fp)
	  while (i < MAXLINELENGTH) {
 1001cf4:	00001506 	br	1001d4c <waitForSentence+0x70>
	    if (newNMEAreceived() == 1) {
 1001cf8:	1001d700 	call	1001d70 <newNMEAreceived>
 1001cfc:	10800058 	cmpnei	r2,r2,1
 1001d00:	1000121e 	bne	r2,zero,1001d4c <waitForSentence+0x70>
	      char *nmea = lastNMEA();
 1001d04:	1001d900 	call	1001d90 <lastNMEA>
 1001d08:	e0bff915 	stw	r2,-28(fp)
	      strncpy(str, nmea, 20);
 1001d0c:	e0bffa04 	addi	r2,fp,-24
 1001d10:	1009883a 	mov	r4,r2
 1001d14:	e17ff917 	ldw	r5,-28(fp)
 1001d18:	01800504 	movi	r6,20
 1001d1c:	1009f740 	call	1009f74 <strncpy>
	      str[19] = 0;
 1001d20:	e03ffec5 	stb	zero,-5(fp)
	      i++;
 1001d24:	e0bff817 	ldw	r2,-32(fp)
 1001d28:	10800044 	addi	r2,r2,1
 1001d2c:	e0bff815 	stw	r2,-32(fp)

	      if (strstr(str, data))
 1001d30:	e0bffa04 	addi	r2,fp,-24
 1001d34:	1009883a 	mov	r4,r2
 1001d38:	e17fff17 	ldw	r5,-4(fp)
 1001d3c:	100a4d00 	call	100a4d0 <strstr>
 1001d40:	10000226 	beq	r2,zero,1001d4c <waitForSentence+0x70>
		return 1;
 1001d44:	00800044 	movi	r2,1
 1001d48:	00000406 	br	1001d5c <waitForSentence+0x80>

int waitForSentence(const char *data) {
	  char str[20];

	  int i=0;
	  while (i < MAXLINELENGTH) {
 1001d4c:	e0bff817 	ldw	r2,-32(fp)
 1001d50:	10801e10 	cmplti	r2,r2,120
 1001d54:	103fe81e 	bne	r2,zero,1001cf8 <__alt_data_end+0xff801cf8>
	      if (strstr(str, data))
		return 1;
	    }
	  }

	  return 0;
 1001d58:	0005883a 	mov	r2,zero
}
 1001d5c:	e037883a 	mov	sp,fp
 1001d60:	dfc00117 	ldw	ra,4(sp)
 1001d64:	df000017 	ldw	fp,0(sp)
 1001d68:	dec00204 	addi	sp,sp,8
 1001d6c:	f800283a 	ret

01001d70 <newNMEAreceived>:

int newNMEAreceived(void) {
 1001d70:	deffff04 	addi	sp,sp,-4
 1001d74:	df000015 	stw	fp,0(sp)
 1001d78:	d839883a 	mov	fp,sp
  return receivedFlag;
 1001d7c:	d0a70d17 	ldw	r2,-25548(gp)
}
 1001d80:	e037883a 	mov	sp,fp
 1001d84:	df000017 	ldw	fp,0(sp)
 1001d88:	dec00104 	addi	sp,sp,4
 1001d8c:	f800283a 	ret

01001d90 <lastNMEA>:



char* lastNMEA(void) {
 1001d90:	deffff04 	addi	sp,sp,-4
 1001d94:	df000015 	stw	fp,0(sp)
 1001d98:	d839883a 	mov	fp,sp
  receivedFlag = 0;
 1001d9c:	d0270d15 	stw	zero,-25548(gp)
  return (char *)lastline;
 1001da0:	d0a70117 	ldw	r2,-25596(gp)
}
 1001da4:	e037883a 	mov	sp,fp
 1001da8:	df000017 	ldw	fp,0(sp)
 1001dac:	dec00104 	addi	sp,sp,4
 1001db0:	f800283a 	ret

01001db4 <LOCUS_StartLogger>:

int LOCUS_StartLogger(void) {
 1001db4:	defffe04 	addi	sp,sp,-8
 1001db8:	dfc00115 	stw	ra,4(sp)
 1001dbc:	df000015 	stw	fp,0(sp)
 1001dc0:	d839883a 	mov	fp,sp
  sendCommand(PMTK_LOCUS_STARTLOG);
 1001dc4:	010040f4 	movhi	r4,259
 1001dc8:	212ffc04 	addi	r4,r4,-16400
 1001dcc:	100230c0 	call	100230c <sendCommand>
  receivedFlag = 0;
 1001dd0:	d0270d15 	stw	zero,-25548(gp)
  return waitForSentence(PMTK_LOCUS_STARTSTOPACK);
 1001dd4:	010040f4 	movhi	r4,259
 1001dd8:	21300004 	addi	r4,r4,-16384
 1001ddc:	1001cdc0 	call	1001cdc <waitForSentence>
}
 1001de0:	e037883a 	mov	sp,fp
 1001de4:	dfc00117 	ldw	ra,4(sp)
 1001de8:	df000017 	ldw	fp,0(sp)
 1001dec:	dec00204 	addi	sp,sp,8
 1001df0:	f800283a 	ret

01001df4 <LOCUS_StopLogger>:

int LOCUS_StopLogger(void) {
 1001df4:	defffe04 	addi	sp,sp,-8
 1001df8:	dfc00115 	stw	ra,4(sp)
 1001dfc:	df000015 	stw	fp,0(sp)
 1001e00:	d839883a 	mov	fp,sp
  sendCommand(PMTK_LOCUS_STOPLOG);
 1001e04:	010040f4 	movhi	r4,259
 1001e08:	21300504 	addi	r4,r4,-16364
 1001e0c:	100230c0 	call	100230c <sendCommand>
  receivedFlag = 0;
 1001e10:	d0270d15 	stw	zero,-25548(gp)
  return waitForSentence(PMTK_LOCUS_STARTSTOPACK);
 1001e14:	010040f4 	movhi	r4,259
 1001e18:	21300004 	addi	r4,r4,-16384
 1001e1c:	1001cdc0 	call	1001cdc <waitForSentence>
}
 1001e20:	e037883a 	mov	sp,fp
 1001e24:	dfc00117 	ldw	ra,4(sp)
 1001e28:	df000017 	ldw	fp,0(sp)
 1001e2c:	dec00204 	addi	sp,sp,8
 1001e30:	f800283a 	ret

01001e34 <LOCUS_ReadStatus>:

int LOCUS_ReadStatus(void) {
 1001e34:	defff104 	addi	sp,sp,-60
 1001e38:	dfc00e15 	stw	ra,56(sp)
 1001e3c:	df000d15 	stw	fp,52(sp)
 1001e40:	df000d04 	addi	fp,sp,52
  sendCommand(PMTK_LOCUS_QUERY_STATUS);
 1001e44:	010040f4 	movhi	r4,259
 1001e48:	21300904 	addi	r4,r4,-16348
 1001e4c:	100230c0 	call	100230c <sendCommand>

  if (! waitForSentence("$PMTKLOG"))
 1001e50:	010040f4 	movhi	r4,259
 1001e54:	21300c04 	addi	r4,r4,-16336
 1001e58:	1001cdc0 	call	1001cdc <waitForSentence>
 1001e5c:	1000021e 	bne	r2,zero,1001e68 <LOCUS_ReadStatus+0x34>
    return 0;
 1001e60:	0005883a 	mov	r2,zero
 1001e64:	0000af06 	br	1002124 <LOCUS_ReadStatus+0x2f0>

  char *response = lastNMEA();
 1001e68:	1001d900 	call	1001d90 <lastNMEA>
 1001e6c:	e0bff315 	stw	r2,-52(fp)
  int parsed[10];
  int i;

  for (i=0; i<10; i++) parsed[i] = -1;
 1001e70:	e03ff415 	stw	zero,-48(fp)
 1001e74:	00000b06 	br	1001ea4 <LOCUS_ReadStatus+0x70>
 1001e78:	e0bff417 	ldw	r2,-48(fp)
 1001e7c:	1085883a 	add	r2,r2,r2
 1001e80:	1085883a 	add	r2,r2,r2
 1001e84:	e0fff304 	addi	r3,fp,-52
 1001e88:	1885883a 	add	r2,r3,r2
 1001e8c:	10800304 	addi	r2,r2,12
 1001e90:	00ffffc4 	movi	r3,-1
 1001e94:	10c00015 	stw	r3,0(r2)
 1001e98:	e0bff417 	ldw	r2,-48(fp)
 1001e9c:	10800044 	addi	r2,r2,1
 1001ea0:	e0bff415 	stw	r2,-48(fp)
 1001ea4:	e0bff417 	ldw	r2,-48(fp)
 1001ea8:	10800290 	cmplti	r2,r2,10
 1001eac:	103ff21e 	bne	r2,zero,1001e78 <__alt_data_end+0xff801e78>

  response = strchr(response, ',');
 1001eb0:	e13ff317 	ldw	r4,-52(fp)
 1001eb4:	01400b04 	movi	r5,44
 1001eb8:	10096fc0 	call	10096fc <strchr>
 1001ebc:	e0bff315 	stw	r2,-52(fp)
  for (i=0; i<10; i++) {
 1001ec0:	e03ff415 	stw	zero,-48(fp)
 1001ec4:	00007006 	br	1002088 <LOCUS_ReadStatus+0x254>
    if (!response || (response[0] == 0) || (response[0] == '*'))
 1001ec8:	e0bff317 	ldw	r2,-52(fp)
 1001ecc:	10007126 	beq	r2,zero,1002094 <LOCUS_ReadStatus+0x260>
 1001ed0:	e0bff317 	ldw	r2,-52(fp)
 1001ed4:	10800003 	ldbu	r2,0(r2)
 1001ed8:	10803fcc 	andi	r2,r2,255
 1001edc:	1080201c 	xori	r2,r2,128
 1001ee0:	10bfe004 	addi	r2,r2,-128
 1001ee4:	10006b26 	beq	r2,zero,1002094 <LOCUS_ReadStatus+0x260>
 1001ee8:	e0bff317 	ldw	r2,-52(fp)
 1001eec:	10800003 	ldbu	r2,0(r2)
 1001ef0:	10803fcc 	andi	r2,r2,255
 1001ef4:	1080201c 	xori	r2,r2,128
 1001ef8:	10bfe004 	addi	r2,r2,-128
 1001efc:	10800aa0 	cmpeqi	r2,r2,42
 1001f00:	1000641e 	bne	r2,zero,1002094 <LOCUS_ReadStatus+0x260>
      break;
    response++;
 1001f04:	e0bff317 	ldw	r2,-52(fp)
 1001f08:	10800044 	addi	r2,r2,1
 1001f0c:	e0bff315 	stw	r2,-52(fp)
    parsed[i]=0;
 1001f10:	e0bff417 	ldw	r2,-48(fp)
 1001f14:	1085883a 	add	r2,r2,r2
 1001f18:	1085883a 	add	r2,r2,r2
 1001f1c:	e13ff304 	addi	r4,fp,-52
 1001f20:	2085883a 	add	r2,r4,r2
 1001f24:	10800304 	addi	r2,r2,12
 1001f28:	10000015 	stw	zero,0(r2)
    while ((response[0] != ',') &&
 1001f2c:	00003f06 	br	100202c <LOCUS_ReadStatus+0x1f8>
	   (response[0] != '*') && (response[0] != 0)) {
      parsed[i] *= 10;
 1001f30:	e0bff417 	ldw	r2,-48(fp)
 1001f34:	1085883a 	add	r2,r2,r2
 1001f38:	1085883a 	add	r2,r2,r2
 1001f3c:	e0fff304 	addi	r3,fp,-52
 1001f40:	1885883a 	add	r2,r3,r2
 1001f44:	10800304 	addi	r2,r2,12
 1001f48:	10800017 	ldw	r2,0(r2)
 1001f4c:	1009883a 	mov	r4,r2
 1001f50:	01400284 	movi	r5,10
 1001f54:	10042880 	call	1004288 <__mulsi3>
 1001f58:	1007883a 	mov	r3,r2
 1001f5c:	e0bff417 	ldw	r2,-48(fp)
 1001f60:	1085883a 	add	r2,r2,r2
 1001f64:	1085883a 	add	r2,r2,r2
 1001f68:	e13ff304 	addi	r4,fp,-52
 1001f6c:	2085883a 	add	r2,r4,r2
 1001f70:	10800304 	addi	r2,r2,12
 1001f74:	10c00015 	stw	r3,0(r2)
      int c = response[0];
 1001f78:	e0bff317 	ldw	r2,-52(fp)
 1001f7c:	10800003 	ldbu	r2,0(r2)
 1001f80:	10803fcc 	andi	r2,r2,255
 1001f84:	1080201c 	xori	r2,r2,128
 1001f88:	10bfe004 	addi	r2,r2,-128
 1001f8c:	e0bff515 	stw	r2,-44(fp)
      if (isdigit(c))
 1001f90:	008040f4 	movhi	r2,259
 1001f94:	10ba8f04 	addi	r2,r2,-5572
 1001f98:	10c00017 	ldw	r3,0(r2)
 1001f9c:	e0bff517 	ldw	r2,-44(fp)
 1001fa0:	10800044 	addi	r2,r2,1
 1001fa4:	1885883a 	add	r2,r3,r2
 1001fa8:	10800003 	ldbu	r2,0(r2)
 1001fac:	10803fcc 	andi	r2,r2,255
 1001fb0:	1080010c 	andi	r2,r2,4
 1001fb4:	10001226 	beq	r2,zero,1002000 <LOCUS_ReadStatus+0x1cc>
        parsed[i] += c - '0';
 1001fb8:	e0bff417 	ldw	r2,-48(fp)
 1001fbc:	1085883a 	add	r2,r2,r2
 1001fc0:	1085883a 	add	r2,r2,r2
 1001fc4:	e0fff304 	addi	r3,fp,-52
 1001fc8:	1885883a 	add	r2,r3,r2
 1001fcc:	10800304 	addi	r2,r2,12
 1001fd0:	10c00017 	ldw	r3,0(r2)
 1001fd4:	e0bff517 	ldw	r2,-44(fp)
 1001fd8:	10bff404 	addi	r2,r2,-48
 1001fdc:	1887883a 	add	r3,r3,r2
 1001fe0:	e0bff417 	ldw	r2,-48(fp)
 1001fe4:	1085883a 	add	r2,r2,r2
 1001fe8:	1085883a 	add	r2,r2,r2
 1001fec:	e13ff304 	addi	r4,fp,-52
 1001ff0:	2085883a 	add	r2,r4,r2
 1001ff4:	10800304 	addi	r2,r2,12
 1001ff8:	10c00015 	stw	r3,0(r2)
 1001ffc:	00000806 	br	1002020 <LOCUS_ReadStatus+0x1ec>
      else
        parsed[i] = c;
 1002000:	e0bff417 	ldw	r2,-48(fp)
 1002004:	1085883a 	add	r2,r2,r2
 1002008:	1085883a 	add	r2,r2,r2
 100200c:	e0fff304 	addi	r3,fp,-52
 1002010:	1885883a 	add	r2,r3,r2
 1002014:	10800304 	addi	r2,r2,12
 1002018:	e0fff517 	ldw	r3,-44(fp)
 100201c:	10c00015 	stw	r3,0(r2)
      response++;
 1002020:	e0bff317 	ldw	r2,-52(fp)
 1002024:	10800044 	addi	r2,r2,1
 1002028:	e0bff315 	stw	r2,-52(fp)
  for (i=0; i<10; i++) {
    if (!response || (response[0] == 0) || (response[0] == '*'))
      break;
    response++;
    parsed[i]=0;
    while ((response[0] != ',') &&
 100202c:	e0bff317 	ldw	r2,-52(fp)
 1002030:	10800003 	ldbu	r2,0(r2)
 1002034:	10803fcc 	andi	r2,r2,255
 1002038:	1080201c 	xori	r2,r2,128
 100203c:	10bfe004 	addi	r2,r2,-128
 1002040:	10800b20 	cmpeqi	r2,r2,44
 1002044:	10000d1e 	bne	r2,zero,100207c <LOCUS_ReadStatus+0x248>
	   (response[0] != '*') && (response[0] != 0)) {
 1002048:	e0bff317 	ldw	r2,-52(fp)
 100204c:	10800003 	ldbu	r2,0(r2)
  for (i=0; i<10; i++) {
    if (!response || (response[0] == 0) || (response[0] == '*'))
      break;
    response++;
    parsed[i]=0;
    while ((response[0] != ',') &&
 1002050:	10803fcc 	andi	r2,r2,255
 1002054:	1080201c 	xori	r2,r2,128
 1002058:	10bfe004 	addi	r2,r2,-128
 100205c:	10800aa0 	cmpeqi	r2,r2,42
 1002060:	1000061e 	bne	r2,zero,100207c <LOCUS_ReadStatus+0x248>
	   (response[0] != '*') && (response[0] != 0)) {
 1002064:	e0bff317 	ldw	r2,-52(fp)
 1002068:	10800003 	ldbu	r2,0(r2)
 100206c:	10803fcc 	andi	r2,r2,255
 1002070:	1080201c 	xori	r2,r2,128
 1002074:	10bfe004 	addi	r2,r2,-128
 1002078:	103fad1e 	bne	r2,zero,1001f30 <__alt_data_end+0xff801f30>
  int i;

  for (i=0; i<10; i++) parsed[i] = -1;

  response = strchr(response, ',');
  for (i=0; i<10; i++) {
 100207c:	e0bff417 	ldw	r2,-48(fp)
 1002080:	10800044 	addi	r2,r2,1
 1002084:	e0bff415 	stw	r2,-48(fp)
 1002088:	e0bff417 	ldw	r2,-48(fp)
 100208c:	10800290 	cmplti	r2,r2,10
 1002090:	103f8d1e 	bne	r2,zero,1001ec8 <__alt_data_end+0xff801ec8>
      else
        parsed[i] = c;
      response++;
    }
  }
  LOCUS_serial = parsed[0];
 1002094:	e0bff617 	ldw	r2,-40(fp)
 1002098:	d0a70415 	stw	r2,-25584(gp)
  LOCUS_type = parsed[1];
 100209c:	e0bff717 	ldw	r2,-36(fp)
 10020a0:	d0a71715 	stw	r2,-25508(gp)
  if (isalpha(parsed[2])) {
 10020a4:	008040f4 	movhi	r2,259
 10020a8:	10ba8f04 	addi	r2,r2,-5572
 10020ac:	10c00017 	ldw	r3,0(r2)
 10020b0:	e0bff817 	ldw	r2,-32(fp)
 10020b4:	10800044 	addi	r2,r2,1
 10020b8:	1885883a 	add	r2,r3,r2
 10020bc:	10800003 	ldbu	r2,0(r2)
 10020c0:	10803fcc 	andi	r2,r2,255
 10020c4:	108000cc 	andi	r2,r2,3
 10020c8:	10000326 	beq	r2,zero,10020d8 <LOCUS_ReadStatus+0x2a4>
    parsed[2] = parsed[2] - 'a' + 10;
 10020cc:	e0bff817 	ldw	r2,-32(fp)
 10020d0:	10bfea44 	addi	r2,r2,-87
 10020d4:	e0bff815 	stw	r2,-32(fp)
  }
  LOCUS_mode = parsed[2];
 10020d8:	e0bff817 	ldw	r2,-32(fp)
 10020dc:	d0a70a15 	stw	r2,-25560(gp)
  LOCUS_config = parsed[3];
 10020e0:	e0bff917 	ldw	r2,-28(fp)
 10020e4:	d0a70815 	stw	r2,-25568(gp)
  LOCUS_interval = parsed[4];
 10020e8:	e0bffa17 	ldw	r2,-24(fp)
 10020ec:	d0a72515 	stw	r2,-25452(gp)
  LOCUS_distance = parsed[5];
 10020f0:	e0bffb17 	ldw	r2,-20(fp)
 10020f4:	d0a70015 	stw	r2,-25600(gp)
  LOCUS_speed = parsed[6];
 10020f8:	e0bffc17 	ldw	r2,-16(fp)
 10020fc:	d0a71d15 	stw	r2,-25484(gp)
  LOCUS_status = !parsed[7];
 1002100:	e0bffd17 	ldw	r2,-12(fp)
 1002104:	1005003a 	cmpeq	r2,r2,zero
 1002108:	10803fcc 	andi	r2,r2,255
 100210c:	d0a71a15 	stw	r2,-25496(gp)
  LOCUS_records = parsed[8];
 1002110:	e0bffe17 	ldw	r2,-8(fp)
 1002114:	d0a72015 	stw	r2,-25472(gp)
  LOCUS_percent = parsed[9];
 1002118:	e0bfff17 	ldw	r2,-4(fp)
 100211c:	d0a71515 	stw	r2,-25516(gp)

  return 1;
 1002120:	00800044 	movi	r2,1
}
 1002124:	e037883a 	mov	sp,fp
 1002128:	dfc00117 	ldw	ra,4(sp)
 100212c:	df000017 	ldw	fp,0(sp)
 1002130:	dec00204 	addi	sp,sp,8
 1002134:	f800283a 	ret

01002138 <standby>:


int standby(void) {
 1002138:	defffe04 	addi	sp,sp,-8
 100213c:	dfc00115 	stw	ra,4(sp)
 1002140:	df000015 	stw	fp,0(sp)
 1002144:	d839883a 	mov	fp,sp
  if (inStandbyMode == 1) {
 1002148:	d0a70317 	ldw	r2,-25588(gp)
 100214c:	10800058 	cmpnei	r2,r2,1
 1002150:	1000021e 	bne	r2,zero,100215c <standby+0x24>
    return 0;  // Returns false if already in standby mode, so that you do not wake it up by sending commands to GPS
 1002154:	0005883a 	mov	r2,zero
 1002158:	00000606 	br	1002174 <standby+0x3c>
  }
  else {
    inStandbyMode = 1;
 100215c:	00800044 	movi	r2,1
 1002160:	d0a70315 	stw	r2,-25588(gp)
    sendCommand(PMTK_STANDBY);
 1002164:	010040f4 	movhi	r4,259
 1002168:	21300f04 	addi	r4,r4,-16324
 100216c:	100230c0 	call	100230c <sendCommand>
    //return waitForSentence(PMTK_STANDBY_SUCCESS);  // don't seem to be fast enough to catch the message, or something else just is not working
    return 1;
 1002170:	00800044 	movi	r2,1
  }
}
 1002174:	e037883a 	mov	sp,fp
 1002178:	dfc00117 	ldw	ra,4(sp)
 100217c:	df000017 	ldw	fp,0(sp)
 1002180:	dec00204 	addi	sp,sp,8
 1002184:	f800283a 	ret

01002188 <wakeup>:

int wakeup(void) {
 1002188:	defffe04 	addi	sp,sp,-8
 100218c:	dfc00115 	stw	ra,4(sp)
 1002190:	df000015 	stw	fp,0(sp)
 1002194:	d839883a 	mov	fp,sp
  if (inStandbyMode) {
 1002198:	d0a70317 	ldw	r2,-25588(gp)
 100219c:	10000826 	beq	r2,zero,10021c0 <wakeup+0x38>
   inStandbyMode = 0;
 10021a0:	d0270315 	stw	zero,-25588(gp)
    sendCommand("");  // send byte to wake it up
 10021a4:	010040f4 	movhi	r4,259
 10021a8:	21301304 	addi	r4,r4,-16308
 10021ac:	100230c0 	call	100230c <sendCommand>
    return waitForSentence(PMTK_AWAKE);
 10021b0:	010040f4 	movhi	r4,259
 10021b4:	21301404 	addi	r4,r4,-16304
 10021b8:	1001cdc0 	call	1001cdc <waitForSentence>
 10021bc:	00000106 	br	10021c4 <wakeup+0x3c>
  }
  else {
      return 0;  // Returns false if not in standby mode, nothing to wakeup
 10021c0:	0005883a 	mov	r2,zero
  }
}
 10021c4:	e037883a 	mov	sp,fp
 10021c8:	dfc00117 	ldw	ra,4(sp)
 10021cc:	df000017 	ldw	fp,0(sp)
 10021d0:	dec00204 	addi	sp,sp,8
 10021d4:	f800283a 	ret

010021d8 <FloatToLatitudeConversion>:




char *FloatToLatitudeConversion(int x) //output format is xx.yyyy
{
 10021d8:	defffb04 	addi	sp,sp,-20
 10021dc:	dfc00415 	stw	ra,16(sp)
 10021e0:	df000315 	stw	fp,12(sp)
 10021e4:	df000304 	addi	fp,sp,12
 10021e8:	e13fff15 	stw	r4,-4(fp)
	static char buff[100] ;
	float *ptr = (float *)(&x) ; // cast int to float
 10021ec:	e0bfff04 	addi	r2,fp,-4
 10021f0:	e0bffd15 	stw	r2,-12(fp)
	float f = *ptr ; // get the float
 10021f4:	e0bffd17 	ldw	r2,-12(fp)
 10021f8:	10800017 	ldw	r2,0(r2)
 10021fc:	e0bffe15 	stw	r2,-8(fp)
	sprintf(buff, "%2.4f", f); // write in string to an array
 1002200:	e13ffe17 	ldw	r4,-8(fp)
 1002204:	10069d00 	call	10069d0 <__extendsfdf2>
 1002208:	100f883a 	mov	r7,r2
 100220c:	1811883a 	mov	r8,r3
 1002210:	010040f4 	movhi	r4,259
 1002214:	2101cd04 	addi	r4,r4,1844
 1002218:	014040f4 	movhi	r5,259
 100221c:	29701804 	addi	r5,r5,-16288
 1002220:	380d883a 	mov	r6,r7
 1002224:	400f883a 	mov	r7,r8
 1002228:	10095540 	call	1009554 <sprintf>
	return buff ;
 100222c:	008040f4 	movhi	r2,259
 1002230:	1081cd04 	addi	r2,r2,1844
}
 1002234:	e037883a 	mov	sp,fp
 1002238:	dfc00117 	ldw	ra,4(sp)
 100223c:	df000017 	ldw	fp,0(sp)
 1002240:	dec00204 	addi	sp,sp,8
 1002244:	f800283a 	ret

01002248 <FloatToLongitudeConversion>:
char *FloatToLongitudeConversion(int x) // output format is (-)xxx.yyyy
{
 1002248:	defffb04 	addi	sp,sp,-20
 100224c:	dfc00415 	stw	ra,16(sp)
 1002250:	df000315 	stw	fp,12(sp)
 1002254:	df000304 	addi	fp,sp,12
 1002258:	e13fff15 	stw	r4,-4(fp)
	static char buff[100] ;
	float *ptr = (float *)(&x) ;
 100225c:	e0bfff04 	addi	r2,fp,-4
 1002260:	e0bffd15 	stw	r2,-12(fp)
	float f = *ptr ;
 1002264:	e0bffd17 	ldw	r2,-12(fp)
 1002268:	10800017 	ldw	r2,0(r2)
 100226c:	e0bffe15 	stw	r2,-8(fp)
	sprintf(buff, "%3.4f", f);
 1002270:	e13ffe17 	ldw	r4,-8(fp)
 1002274:	10069d00 	call	10069d0 <__extendsfdf2>
 1002278:	100f883a 	mov	r7,r2
 100227c:	1811883a 	mov	r8,r3
 1002280:	010040f4 	movhi	r4,259
 1002284:	2101e604 	addi	r4,r4,1944
 1002288:	014040f4 	movhi	r5,259
 100228c:	29701a04 	addi	r5,r5,-16280
 1002290:	380d883a 	mov	r6,r7
 1002294:	400f883a 	mov	r7,r8
 1002298:	10095540 	call	1009554 <sprintf>
	return buff ;
 100229c:	008040f4 	movhi	r2,259
 10022a0:	1081e604 	addi	r2,r2,1944
}
 10022a4:	e037883a 	mov	sp,fp
 10022a8:	dfc00117 	ldw	ra,4(sp)
 10022ac:	df000017 	ldw	fp,0(sp)
 10022b0:	dec00204 	addi	sp,sp,8
 10022b4:	f800283a 	ret

010022b8 <putcharGPSCHIP>:


char putcharGPSCHIP(char c)
{
 10022b8:	defffe04 	addi	sp,sp,-8
 10022bc:	df000115 	stw	fp,4(sp)
 10022c0:	df000104 	addi	fp,sp,4
 10022c4:	2005883a 	mov	r2,r4
 10022c8:	e0bfff05 	stb	r2,-4(fp)
// poll Tx bit in 6850 status register. Wait for it to become '1'

// write 'c' to the 6850 TxData register to output the character

	while (!(GPSCHIP_Status & 0x2));
 10022cc:	0001883a 	nop
 10022d0:	00a10034 	movhi	r2,33792
 10022d4:	10808404 	addi	r2,r2,528
 10022d8:	10800003 	ldbu	r2,0(r2)
 10022dc:	10803fcc 	andi	r2,r2,255
 10022e0:	1080008c 	andi	r2,r2,2
 10022e4:	103ffa26 	beq	r2,zero,10022d0 <__alt_data_end+0xff8022d0>
	GPSCHIP_TxData = c;
 10022e8:	00a10034 	movhi	r2,33792
 10022ec:	10808484 	addi	r2,r2,530
 10022f0:	e0ffff03 	ldbu	r3,-4(fp)
 10022f4:	10c00005 	stb	r3,0(r2)

	return c;
 10022f8:	e0bfff03 	ldbu	r2,-4(fp)
}
 10022fc:	e037883a 	mov	sp,fp
 1002300:	df000017 	ldw	fp,0(sp)
 1002304:	dec00104 	addi	sp,sp,4
 1002308:	f800283a 	ret

0100230c <sendCommand>:

void sendCommand(const char *str){
 100230c:	defffb04 	addi	sp,sp,-20
 1002310:	dfc00415 	stw	ra,16(sp)
 1002314:	df000315 	stw	fp,12(sp)
 1002318:	df000304 	addi	fp,sp,12
 100231c:	e13fff15 	stw	r4,-4(fp)

	int length = sizeof(str);
 1002320:	00800104 	movi	r2,4
 1002324:	e0bffe15 	stw	r2,-8(fp)

	int i = 0;
 1002328:	e03ffd15 	stw	zero,-12(fp)
		for(i = 0; i < length; i++){
 100232c:	e03ffd15 	stw	zero,-12(fp)
 1002330:	00000f06 	br	1002370 <sendCommand+0x64>
			usleep(100000); //wait for 100ms
 1002334:	010000b4 	movhi	r4,2
 1002338:	2121a804 	addi	r4,r4,-31072
 100233c:	101aea00 	call	101aea0 <usleep>
			putcharGPSCHIP(str[i]);
 1002340:	e0bffd17 	ldw	r2,-12(fp)
 1002344:	e0ffff17 	ldw	r3,-4(fp)
 1002348:	1885883a 	add	r2,r3,r2
 100234c:	10800003 	ldbu	r2,0(r2)
 1002350:	10803fcc 	andi	r2,r2,255
 1002354:	1080201c 	xori	r2,r2,128
 1002358:	10bfe004 	addi	r2,r2,-128
 100235c:	1009883a 	mov	r4,r2
 1002360:	10022b80 	call	10022b8 <putcharGPSCHIP>
void sendCommand(const char *str){

	int length = sizeof(str);

	int i = 0;
		for(i = 0; i < length; i++){
 1002364:	e0bffd17 	ldw	r2,-12(fp)
 1002368:	10800044 	addi	r2,r2,1
 100236c:	e0bffd15 	stw	r2,-12(fp)
 1002370:	e0fffd17 	ldw	r3,-12(fp)
 1002374:	e0bffe17 	ldw	r2,-8(fp)
 1002378:	18bfee16 	blt	r3,r2,1002334 <__alt_data_end+0xff802334>
			usleep(100000); //wait for 100ms
			putcharGPSCHIP(str[i]);
		}
}
 100237c:	e037883a 	mov	sp,fp
 1002380:	dfc00117 	ldw	ra,4(sp)
 1002384:	df000017 	ldw	fp,0(sp)
 1002388:	dec00204 	addi	sp,sp,8
 100238c:	f800283a 	ret

01002390 <getcharGPSCHIP>:



char getcharGPSCHIP( void )
{
 1002390:	deffff04 	addi	sp,sp,-4
 1002394:	df000015 	stw	fp,0(sp)
 1002398:	d839883a 	mov	fp,sp
 // poll Rx bit in 6850 status register. Wait for it to become '1'
 // read received character from 6850 RxData register.
	while (!(GPSCHIP_Status & 0x1));
 100239c:	0001883a 	nop
 10023a0:	00a10034 	movhi	r2,33792
 10023a4:	10808404 	addi	r2,r2,528
 10023a8:	10800003 	ldbu	r2,0(r2)
 10023ac:	10803fcc 	andi	r2,r2,255
 10023b0:	1080004c 	andi	r2,r2,1
 10023b4:	103ffa26 	beq	r2,zero,10023a0 <__alt_data_end+0xff8023a0>

	if(GPSCHIP_RxData == '\n') {
 10023b8:	00a10034 	movhi	r2,33792
 10023bc:	10808484 	addi	r2,r2,530
 10023c0:	10800003 	ldbu	r2,0(r2)
 10023c4:	10803fcc 	andi	r2,r2,255
 10023c8:	10800298 	cmpnei	r2,r2,10
 10023cc:	1000181e 	bne	r2,zero,1002430 <getcharGPSCHIP+0xa0>

		currentline[lineidx] = 0;
 10023d0:	d0a72217 	ldw	r2,-25464(gp)
 10023d4:	d0e6fc17 	ldw	r3,-25616(gp)
 10023d8:	10c5883a 	add	r2,r2,r3
 10023dc:	10000005 	stb	zero,0(r2)

		if(currentline == line1) {
 10023e0:	d0e72217 	ldw	r3,-25464(gp)
 10023e4:	008040f4 	movhi	r2,259
 10023e8:	10820904 	addi	r2,r2,2084
 10023ec:	1880071e 	bne	r3,r2,100240c <getcharGPSCHIP+0x7c>
			currentline = line2;
 10023f0:	008040f4 	movhi	r2,259
 10023f4:	10822704 	addi	r2,r2,2204
 10023f8:	d0a72215 	stw	r2,-25464(gp)
			lastline = line1;
 10023fc:	008040f4 	movhi	r2,259
 1002400:	10820904 	addi	r2,r2,2084
 1002404:	d0a70115 	stw	r2,-25596(gp)
 1002408:	00000606 	br	1002424 <getcharGPSCHIP+0x94>
		} else {
			currentline = line1;
 100240c:	008040f4 	movhi	r2,259
 1002410:	10820904 	addi	r2,r2,2084
 1002414:	d0a72215 	stw	r2,-25464(gp)
			lastline = line2;
 1002418:	008040f4 	movhi	r2,259
 100241c:	10822704 	addi	r2,r2,2204
 1002420:	d0a70115 	stw	r2,-25596(gp)
		}

		lineidx = 0;
 1002424:	d026fc15 	stw	zero,-25616(gp)
		receivedFlag = 1;
 1002428:	00800044 	movi	r2,1
 100242c:	d0a70d15 	stw	r2,-25548(gp)

	}

	currentline[lineidx++] = GPSCHIP_RxData;
 1002430:	d0e72217 	ldw	r3,-25464(gp)
 1002434:	d0a6fc17 	ldw	r2,-25616(gp)
 1002438:	11000044 	addi	r4,r2,1
 100243c:	d126fc15 	stw	r4,-25616(gp)
 1002440:	1887883a 	add	r3,r3,r2
 1002444:	00a10034 	movhi	r2,33792
 1002448:	10808484 	addi	r2,r2,530
 100244c:	10800003 	ldbu	r2,0(r2)
 1002450:	18800005 	stb	r2,0(r3)
	if(lineidx >= MAXLINELENGTH)
 1002454:	d0a6fc17 	ldw	r2,-25616(gp)
 1002458:	10801e10 	cmplti	r2,r2,120
 100245c:	1000021e 	bne	r2,zero,1002468 <getcharGPSCHIP+0xd8>
		lineidx = MAXLINELENGTH - 1;
 1002460:	00801dc4 	movi	r2,119
 1002464:	d0a6fc15 	stw	r2,-25616(gp)


	return GPSCHIP_RxData;
 1002468:	00a10034 	movhi	r2,33792
 100246c:	10808484 	addi	r2,r2,530
 1002470:	10800003 	ldbu	r2,0(r2)
}
 1002474:	e037883a 	mov	sp,fp
 1002478:	df000017 	ldw	fp,0(sp)
 100247c:	dec00104 	addi	sp,sp,4
 1002480:	f800283a 	ret

01002484 <GPSCHIPTestForReceivedData>:

// the following function polls the 6850 to determine if any character
// has been received. It doesn't wait for one, or read it, it simply tests
// to see if one is available to read
int GPSCHIPTestForReceivedData(void)
{
 1002484:	deffff04 	addi	sp,sp,-4
 1002488:	df000015 	stw	fp,0(sp)
 100248c:	d839883a 	mov	fp,sp
 // Test Rx bit in 6850 serial comms chip status register
 // if RX bit is set, return TRUE, otherwise return FALSE

	// RS232_Status: XXXX XXXX
	// We want bit0: 0000 0001
	return (GPSCHIP_Status & 0x1);
 1002490:	00a10034 	movhi	r2,33792
 1002494:	10808404 	addi	r2,r2,528
 1002498:	10800003 	ldbu	r2,0(r2)
 100249c:	10803fcc 	andi	r2,r2,255
 10024a0:	1080004c 	andi	r2,r2,1
}
 10024a4:	e037883a 	mov	sp,fp
 10024a8:	df000017 	ldw	fp,0(sp)
 10024ac:	dec00104 	addi	sp,sp,4
 10024b0:	f800283a 	ret

010024b4 <GPSCHIPTestForTransmitData>:

int GPSCHIPTestForTransmitData(void) {
 10024b4:	deffff04 	addi	sp,sp,-4
 10024b8:	df000015 	stw	fp,0(sp)
 10024bc:	d839883a 	mov	fp,sp
	// Test Tx bit in 6850 serial communications chip status register
	// if TX bit is set, return TRUE, otherwise return FALSE

	// RS232_Status: XXXX XXXX
	// We want bit1: 0000 0010
	return (GPSCHIP_Status & 0x2);
 10024c0:	00a10034 	movhi	r2,33792
 10024c4:	10808404 	addi	r2,r2,528
 10024c8:	10800003 	ldbu	r2,0(r2)
 10024cc:	10803fcc 	andi	r2,r2,255
 10024d0:	1080008c 	andi	r2,r2,2
}
 10024d4:	e037883a 	mov	sp,fp
 10024d8:	df000017 	ldw	fp,0(sp)
 10024dc:	dec00104 	addi	sp,sp,4
 10024e0:	f800283a 	ret

010024e4 <getLocationData>:


location getLocationData() {
 10024e4:	defff304 	addi	sp,sp,-52
 10024e8:	dfc00c15 	stw	ra,48(sp)
 10024ec:	df000b15 	stw	fp,44(sp)
 10024f0:	dc800a15 	stw	r18,40(sp)
 10024f4:	dc400915 	stw	r17,36(sp)
 10024f8:	dc000815 	stw	r16,32(sp)
 10024fc:	df000b04 	addi	fp,sp,44
 1002500:	e13ffc15 	stw	r4,-16(fp)

	Init_GPSCHIP();
 1002504:	10009d00 	call	10009d0 <Init_GPSCHIP>

	location loc;
	while(1) {
	getcharGPSCHIP();
 1002508:	10023900 	call	1002390 <getcharGPSCHIP>

			if(newNMEAreceived() == 1) {
 100250c:	1001d700 	call	1001d70 <newNMEAreceived>
 1002510:	10800058 	cmpnei	r2,r2,1
 1002514:	1000321e 	bne	r2,zero,10025e0 <getLocationData+0xfc>
				if(parseData(lastNMEA())== 1){
 1002518:	1001d900 	call	1001d90 <lastNMEA>
 100251c:	1009883a 	mov	r4,r2
 1002520:	1000af40 	call	1000af4 <parseData>
 1002524:	10800058 	cmpnei	r2,r2,1
 1002528:	10002d1e 	bne	r2,zero,10025e0 <getLocationData+0xfc>

					loc.latitude = latitude;
 100252c:	d0a71e17 	ldw	r2,-25480(gp)
 1002530:	e0bff815 	stw	r2,-32(fp)
					loc.latitude_dir = lat;
 1002534:	d0a72403 	ldbu	r2,-25456(gp)
 1002538:	e0bff905 	stb	r2,-28(fp)
					loc.longitude = longitude;
 100253c:	d0a71117 	ldw	r2,-25532(gp)
 1002540:	e0bffa15 	stw	r2,-24(fp)
					loc.longitude_dir = lon;
 1002544:	d0a71003 	ldbu	r2,-25536(gp)
 1002548:	e0bffb05 	stb	r2,-20(fp)


					printf("Location (latitude, longitude): %.2f, %c, %.2f, %c", loc.latitude, loc.latitude_dir, loc.longitude, loc.longitude_dir);
 100254c:	e0bff817 	ldw	r2,-32(fp)
 1002550:	1009883a 	mov	r4,r2
 1002554:	10069d00 	call	10069d0 <__extendsfdf2>
 1002558:	1021883a 	mov	r16,r2
 100255c:	1823883a 	mov	r17,r3
 1002560:	e0bff903 	ldbu	r2,-28(fp)
 1002564:	14803fcc 	andi	r18,r2,255
 1002568:	9480201c 	xori	r18,r18,128
 100256c:	94bfe004 	addi	r18,r18,-128
 1002570:	e0bffa17 	ldw	r2,-24(fp)
 1002574:	1009883a 	mov	r4,r2
 1002578:	10069d00 	call	10069d0 <__extendsfdf2>
 100257c:	1009883a 	mov	r4,r2
 1002580:	180b883a 	mov	r5,r3
 1002584:	e0bffb03 	ldbu	r2,-20(fp)
 1002588:	10803fcc 	andi	r2,r2,255
 100258c:	1080201c 	xori	r2,r2,128
 1002590:	10bfe004 	addi	r2,r2,-128
 1002594:	d9000015 	stw	r4,0(sp)
 1002598:	d9400115 	stw	r5,4(sp)
 100259c:	d8800215 	stw	r2,8(sp)
 10025a0:	010040f4 	movhi	r4,259
 10025a4:	21301c04 	addi	r4,r4,-16272
 10025a8:	800b883a 	mov	r5,r16
 10025ac:	880d883a 	mov	r6,r17
 10025b0:	900f883a 	mov	r7,r18
 10025b4:	10091340 	call	1009134 <printf>
					return loc;
 10025b8:	e0bffc17 	ldw	r2,-16(fp)
 10025bc:	e0fff817 	ldw	r3,-32(fp)
 10025c0:	10c00015 	stw	r3,0(r2)
 10025c4:	e0fff917 	ldw	r3,-28(fp)
 10025c8:	10c00115 	stw	r3,4(r2)
 10025cc:	e0fffa17 	ldw	r3,-24(fp)
 10025d0:	10c00215 	stw	r3,8(r2)
 10025d4:	e0fffb17 	ldw	r3,-20(fp)
 10025d8:	10c00315 	stw	r3,12(r2)
 10025dc:	00000106 	br	10025e4 <getLocationData+0x100>

				}
			}

	}
 10025e0:	003fc906 	br	1002508 <__alt_data_end+0xff802508>
	return loc;
}
 10025e4:	e0bffc17 	ldw	r2,-16(fp)
 10025e8:	e6fffd04 	addi	sp,fp,-12
 10025ec:	dfc00417 	ldw	ra,16(sp)
 10025f0:	df000317 	ldw	fp,12(sp)
 10025f4:	dc800217 	ldw	r18,8(sp)
 10025f8:	dc400117 	ldw	r17,4(sp)
 10025fc:	dc000017 	ldw	r16,0(sp)
 1002600:	dec00504 	addi	sp,sp,20
 1002604:	f800283a 	ret

01002608 <test>:

void test() {
 1002608:	defff304 	addi	sp,sp,-52
 100260c:	dfc00c15 	stw	ra,48(sp)
 1002610:	df000b15 	stw	fp,44(sp)
 1002614:	dc800a15 	stw	r18,40(sp)
 1002618:	dc400915 	stw	r17,36(sp)
 100261c:	dc000815 	stw	r16,32(sp)
 1002620:	df000b04 	addi	fp,sp,44
	printf("Test GPSCHIP\n");
 1002624:	010040f4 	movhi	r4,259
 1002628:	21302904 	addi	r4,r4,-16220
 100262c:	10092480 	call	1009248 <puts>
	Init_GPSCHIP();
 1002630:	10009d00 	call	10009d0 <Init_GPSCHIP>

	alt_up_character_lcd_dev *char_lcd_dev;

	char_lcd_dev = alt_up_character_lcd_open_dev ("/dev/character_lcd_0");
 1002634:	010040f4 	movhi	r4,259
 1002638:	21302d04 	addi	r4,r4,-16204
 100263c:	10200b00 	call	10200b0 <alt_up_character_lcd_open_dev>
 1002640:	e0bff915 	stw	r2,-28(fp)

	if(char_lcd_dev == NULL)
 1002644:	e0bff917 	ldw	r2,-28(fp)
 1002648:	1000041e 	bne	r2,zero,100265c <test+0x54>
		printf("Error: could not open character LCD device\n");
 100264c:	010040f4 	movhi	r4,259
 1002650:	21303304 	addi	r4,r4,-16180
 1002654:	10092480 	call	1009248 <puts>
 1002658:	00000306 	br	1002668 <test+0x60>
	else
		printf("Character LCD Device open\n");
 100265c:	010040f4 	movhi	r4,259
 1002660:	21303e04 	addi	r4,r4,-16136
 1002664:	10092480 	call	1009248 <puts>


	alt_up_character_lcd_init(char_lcd_dev);
 1002668:	e13ff917 	ldw	r4,-28(fp)
 100266c:	102007c0 	call	102007c <alt_up_character_lcd_init>
	 }
	 */


	while(1){
		getcharGPSCHIP();
 1002670:	10023900 	call	1002390 <getcharGPSCHIP>

		if(newNMEAreceived() == 1) {
 1002674:	1001d700 	call	1001d70 <newNMEAreceived>
 1002678:	10800058 	cmpnei	r2,r2,1
 100267c:	1000881e 	bne	r2,zero,10028a0 <test+0x298>
			if(parseData(lastNMEA())
 1002680:	1001d900 	call	1001d90 <lastNMEA>
 1002684:	1009883a 	mov	r4,r2
 1002688:	1000af40 	call	1000af4 <parseData>
 100268c:	10800058 	cmpnei	r2,r2,1
 1002690:	1000831e 	bne	r2,zero,10028a0 <test+0x298>
					== 1){

				alt_up_character_lcd_set_cursor_pos(char_lcd_dev, 0, 0);
 1002694:	e13ff917 	ldw	r4,-28(fp)
 1002698:	000b883a 	mov	r5,zero
 100269c:	000d883a 	mov	r6,zero
 10026a0:	102022c0 	call	102022c <alt_up_character_lcd_set_cursor_pos>
				}

	**/

				char * format_str;
				sprintf(format_str, "%s", format);
 10026a4:	d0a70517 	ldw	r2,-25580(gp)
 10026a8:	e13ffa17 	ldw	r4,-24(fp)
 10026ac:	100b883a 	mov	r5,r2
 10026b0:	10098600 	call	1009860 <strcpy>
				char * time;
				sprintf(time, "%sTime:%d:%d:%d", format,hour, minute, milliseconds);
 10026b4:	d1a70517 	ldw	r6,-25580(gp)
 10026b8:	d1e70e17 	ldw	r7,-25544(gp)
 10026bc:	d0e70917 	ldw	r3,-25564(gp)
 10026c0:	d0a70c17 	ldw	r2,-25552(gp)
 10026c4:	d8c00015 	stw	r3,0(sp)
 10026c8:	d8800115 	stw	r2,4(sp)
 10026cc:	e13ffb17 	ldw	r4,-20(fp)
 10026d0:	014040f4 	movhi	r5,259
 10026d4:	29704504 	addi	r5,r5,-16108
 10026d8:	10095540 	call	1009554 <sprintf>
				alt_up_character_lcd_set_cursor_pos(char_lcd_dev, 0,0);
 10026dc:	e13ff917 	ldw	r4,-28(fp)
 10026e0:	000b883a 	mov	r5,zero
 10026e4:	000d883a 	mov	r6,zero
 10026e8:	102022c0 	call	102022c <alt_up_character_lcd_set_cursor_pos>
				alt_up_character_lcd_string(char_lcd_dev, time);
 10026ec:	e13ff917 	ldw	r4,-28(fp)
 10026f0:	e17ffb17 	ldw	r5,-20(fp)
 10026f4:	10201680 	call	1020168 <alt_up_character_lcd_string>
				//char * date;
				//sprintf(date, "Date:%d:%d:%d", day, month, year);
				//alt_up_character_lcd_set_cursor_pos(char_lcd_dev, 6, 0);
				//alt_up_character_lcd_string(char_lcd_dev, date);
				alt_up_character_lcd_set_cursor_pos(char_lcd_dev, 0, 1);
 10026f8:	e13ff917 	ldw	r4,-28(fp)
 10026fc:	000b883a 	mov	r5,zero
 1002700:	01800044 	movi	r6,1
 1002704:	102022c0 	call	102022c <alt_up_character_lcd_set_cursor_pos>
				char * location_str = "";
 1002708:	008040f4 	movhi	r2,259
 100270c:	10b01304 	addi	r2,r2,-16308
 1002710:	e0bffc15 	stw	r2,-16(fp)
				sprintf(location_str,"%.2f%c%.2f%c",latitude, lat, longitude, lon);
 1002714:	d0a71e17 	ldw	r2,-25480(gp)
 1002718:	1009883a 	mov	r4,r2
 100271c:	10069d00 	call	10069d0 <__extendsfdf2>
 1002720:	1021883a 	mov	r16,r2
 1002724:	1823883a 	mov	r17,r3
 1002728:	d0a72403 	ldbu	r2,-25456(gp)
 100272c:	14803fcc 	andi	r18,r2,255
 1002730:	9480201c 	xori	r18,r18,128
 1002734:	94bfe004 	addi	r18,r18,-128
 1002738:	d0a71117 	ldw	r2,-25532(gp)
 100273c:	1009883a 	mov	r4,r2
 1002740:	10069d00 	call	10069d0 <__extendsfdf2>
 1002744:	1009883a 	mov	r4,r2
 1002748:	180b883a 	mov	r5,r3
 100274c:	d0a71003 	ldbu	r2,-25536(gp)
 1002750:	10803fcc 	andi	r2,r2,255
 1002754:	1080201c 	xori	r2,r2,128
 1002758:	10bfe004 	addi	r2,r2,-128
 100275c:	dc800015 	stw	r18,0(sp)
 1002760:	d9000115 	stw	r4,4(sp)
 1002764:	d9400215 	stw	r5,8(sp)
 1002768:	d8800315 	stw	r2,12(sp)
 100276c:	e13ffc17 	ldw	r4,-16(fp)
 1002770:	014040f4 	movhi	r5,259
 1002774:	29704904 	addi	r5,r5,-16092
 1002778:	800d883a 	mov	r6,r16
 100277c:	880f883a 	mov	r7,r17
 1002780:	10095540 	call	1009554 <sprintf>
				alt_up_character_lcd_string(char_lcd_dev, location_str);
 1002784:	e13ff917 	ldw	r4,-28(fp)
 1002788:	e17ffc17 	ldw	r5,-16(fp)
 100278c:	10201680 	call	1020168 <alt_up_character_lcd_string>

				printf("Format: %s", format);
 1002790:	d0a70517 	ldw	r2,-25580(gp)
 1002794:	010040f4 	movhi	r4,259
 1002798:	21304d04 	addi	r4,r4,-16076
 100279c:	100b883a 	mov	r5,r2
 10027a0:	10091340 	call	1009134 <printf>
				printf("Time (HH: MM:ss) : %d, %d, %d", hour, minute, seconds);
 10027a4:	d1670e17 	ldw	r5,-25544(gp)
 10027a8:	d0e70917 	ldw	r3,-25564(gp)
 10027ac:	d0a71617 	ldw	r2,-25512(gp)
 10027b0:	010040f4 	movhi	r4,259
 10027b4:	21305004 	addi	r4,r4,-16064
 10027b8:	180d883a 	mov	r6,r3
 10027bc:	100f883a 	mov	r7,r2
 10027c0:	10091340 	call	1009134 <printf>
				printf("Date (day:month:year): %d, %d, %d", day, month, year);
 10027c4:	d1671f17 	ldw	r5,-25476(gp)
 10027c8:	d0e70717 	ldw	r3,-25572(gp)
 10027cc:	d0a71c17 	ldw	r2,-25488(gp)
 10027d0:	010040f4 	movhi	r4,259
 10027d4:	21305804 	addi	r4,r4,-16032
 10027d8:	180d883a 	mov	r6,r3
 10027dc:	100f883a 	mov	r7,r2
 10027e0:	10091340 	call	1009134 <printf>
				printf("Location (latitude, longitude):%f, %c, %f, %c", latitude, lat, longitude, lon);
 10027e4:	d0a71e17 	ldw	r2,-25480(gp)
 10027e8:	1009883a 	mov	r4,r2
 10027ec:	10069d00 	call	10069d0 <__extendsfdf2>
 10027f0:	1021883a 	mov	r16,r2
 10027f4:	1823883a 	mov	r17,r3
 10027f8:	d0a72403 	ldbu	r2,-25456(gp)
 10027fc:	14803fcc 	andi	r18,r2,255
 1002800:	9480201c 	xori	r18,r18,128
 1002804:	94bfe004 	addi	r18,r18,-128
 1002808:	d0a71117 	ldw	r2,-25532(gp)
 100280c:	1009883a 	mov	r4,r2
 1002810:	10069d00 	call	10069d0 <__extendsfdf2>
 1002814:	1009883a 	mov	r4,r2
 1002818:	180b883a 	mov	r5,r3
 100281c:	d0a71003 	ldbu	r2,-25536(gp)
 1002820:	10803fcc 	andi	r2,r2,255
 1002824:	1080201c 	xori	r2,r2,128
 1002828:	10bfe004 	addi	r2,r2,-128
 100282c:	d9000015 	stw	r4,0(sp)
 1002830:	d9400115 	stw	r5,4(sp)
 1002834:	d8800215 	stw	r2,8(sp)
 1002838:	010040f4 	movhi	r4,259
 100283c:	21306104 	addi	r4,r4,-15996
 1002840:	800b883a 	mov	r5,r16
 1002844:	880d883a 	mov	r6,r17
 1002848:	900f883a 	mov	r7,r18
 100284c:	10091340 	call	1009134 <printf>
				printf("Geoidheight : %.2f", geoidheight);
 1002850:	d0a6fe17 	ldw	r2,-25608(gp)
 1002854:	1009883a 	mov	r4,r2
 1002858:	10069d00 	call	10069d0 <__extendsfdf2>
 100285c:	100d883a 	mov	r6,r2
 1002860:	180f883a 	mov	r7,r3
 1002864:	010040f4 	movhi	r4,259
 1002868:	21306d04 	addi	r4,r4,-15948
 100286c:	300b883a 	mov	r5,r6
 1002870:	380d883a 	mov	r6,r7
 1002874:	10091340 	call	1009134 <printf>
				printf("Altitude: %.2f", altitude);
 1002878:	d0a71317 	ldw	r2,-25524(gp)
 100287c:	1009883a 	mov	r4,r2
 1002880:	10069d00 	call	10069d0 <__extendsfdf2>
 1002884:	100d883a 	mov	r6,r2
 1002888:	180f883a 	mov	r7,r3
 100288c:	010040f4 	movhi	r4,259
 1002890:	21307204 	addi	r4,r4,-15928
 1002894:	300b883a 	mov	r5,r6
 1002898:	380d883a 	mov	r6,r7
 100289c:	10091340 	call	1009134 <printf>

			}
		}

	}
 10028a0:	003f7306 	br	1002670 <__alt_data_end+0xff802670>

010028a4 <WriteAPixel>:
/**********************************************************************
* This function writes a single pixel to the x,y coords specified in the specified colour
* Note colour is a palette number (0-255) not a 24 bit RGB value
**********************************************************************/
void WriteAPixel (int x, int y, int Colour)
{
 10028a4:	defffc04 	addi	sp,sp,-16
 10028a8:	df000315 	stw	fp,12(sp)
 10028ac:	df000304 	addi	fp,sp,12
 10028b0:	e13ffd15 	stw	r4,-12(fp)
 10028b4:	e17ffe15 	stw	r5,-8(fp)
 10028b8:	e1bfff15 	stw	r6,-4(fp)
	WAIT_FOR_GRAPHICS;			// is graphics ready for new command
 10028bc:	0001883a 	nop
 10028c0:	00a10034 	movhi	r2,33792
 10028c4:	1080000b 	ldhu	r2,0(r2)
 10028c8:	10bfffcc 	andi	r2,r2,65535
 10028cc:	1080004c 	andi	r2,r2,1
 10028d0:	103ffb26 	beq	r2,zero,10028c0 <__alt_data_end+0xff8028c0>

	GraphicsX1Reg = x;			// write coords to x1, y1
 10028d4:	00a10034 	movhi	r2,33792
 10028d8:	10800084 	addi	r2,r2,2
 10028dc:	e0fffd17 	ldw	r3,-12(fp)
 10028e0:	10c0000d 	sth	r3,0(r2)
	GraphicsY1Reg = y;
 10028e4:	00a10034 	movhi	r2,33792
 10028e8:	10800104 	addi	r2,r2,4
 10028ec:	e0fffe17 	ldw	r3,-8(fp)
 10028f0:	10c0000d 	sth	r3,0(r2)
	GraphicsColourReg = Colour;		// set pixel colour with a palette number
 10028f4:	00a10034 	movhi	r2,33792
 10028f8:	10800384 	addi	r2,r2,14
 10028fc:	e0ffff17 	ldw	r3,-4(fp)
 1002900:	10c0000d 	sth	r3,0(r2)
	GraphicsCommandReg = PutAPixel;		// give graphics a "write pixel" command
 1002904:	00a10034 	movhi	r2,33792
 1002908:	00c00284 	movi	r3,10
 100290c:	10c0000d 	sth	r3,0(r2)
}
 1002910:	e037883a 	mov	sp,fp
 1002914:	df000017 	ldw	fp,0(sp)
 1002918:	dec00104 	addi	sp,sp,4
 100291c:	f800283a 	ret

01002920 <ReadAPixel>:
/*****************************************************************************************
* This function read a single pixel from x,y coords specified and returns its colour
* Note returned colour is a palette number (0-255) not a 24 bit RGB value
******************************************************************************************/
int ReadAPixel (int x, int y)
{
 1002920:	defffd04 	addi	sp,sp,-12
 1002924:	df000215 	stw	fp,8(sp)
 1002928:	df000204 	addi	fp,sp,8
 100292c:	e13ffe15 	stw	r4,-8(fp)
 1002930:	e17fff15 	stw	r5,-4(fp)
	WAIT_FOR_GRAPHICS;			// is graphics ready for new command
 1002934:	0001883a 	nop
 1002938:	00a10034 	movhi	r2,33792
 100293c:	1080000b 	ldhu	r2,0(r2)
 1002940:	10bfffcc 	andi	r2,r2,65535
 1002944:	1080004c 	andi	r2,r2,1
 1002948:	103ffb26 	beq	r2,zero,1002938 <__alt_data_end+0xff802938>

	GraphicsX1Reg = x;			// write coords to x1, y1
 100294c:	00a10034 	movhi	r2,33792
 1002950:	10800084 	addi	r2,r2,2
 1002954:	e0fffe17 	ldw	r3,-8(fp)
 1002958:	10c0000d 	sth	r3,0(r2)
	GraphicsY1Reg = y;
 100295c:	00a10034 	movhi	r2,33792
 1002960:	10800104 	addi	r2,r2,4
 1002964:	e0ffff17 	ldw	r3,-4(fp)
 1002968:	10c0000d 	sth	r3,0(r2)
	GraphicsCommandReg = GetAPixel;		// give graphics a "get pixel" command
 100296c:	00a10034 	movhi	r2,33792
 1002970:	00c002c4 	movi	r3,11
 1002974:	10c0000d 	sth	r3,0(r2)

	WAIT_FOR_GRAPHICS;			// is graphics done reading pixel
 1002978:	0001883a 	nop
 100297c:	00a10034 	movhi	r2,33792
 1002980:	1080000b 	ldhu	r2,0(r2)
 1002984:	10bfffcc 	andi	r2,r2,65535
 1002988:	1080004c 	andi	r2,r2,1
 100298c:	103ffb26 	beq	r2,zero,100297c <__alt_data_end+0xff80297c>
	return (int)(GraphicsColourReg) ;		// return the palette number (colour)
 1002990:	00a10034 	movhi	r2,33792
 1002994:	10800384 	addi	r2,r2,14
 1002998:	1080000b 	ldhu	r2,0(r2)
 100299c:	10bfffcc 	andi	r2,r2,65535
}
 10029a0:	e037883a 	mov	sp,fp
 10029a4:	df000017 	ldw	fp,0(sp)
 10029a8:	dec00104 	addi	sp,sp,4
 10029ac:	f800283a 	ret

010029b0 <DrawHorizontalLine>:

void DrawHorizontalLine(int x1, int x2, int y, int Colour)
{
 10029b0:	defffb04 	addi	sp,sp,-20
 10029b4:	df000415 	stw	fp,16(sp)
 10029b8:	df000404 	addi	fp,sp,16
 10029bc:	e13ffc15 	stw	r4,-16(fp)
 10029c0:	e17ffd15 	stw	r5,-12(fp)
 10029c4:	e1bffe15 	stw	r6,-8(fp)
 10029c8:	e1ffff15 	stw	r7,-4(fp)
	WAIT_FOR_GRAPHICS;
 10029cc:	0001883a 	nop
 10029d0:	00a10034 	movhi	r2,33792
 10029d4:	1080000b 	ldhu	r2,0(r2)
 10029d8:	10bfffcc 	andi	r2,r2,65535
 10029dc:	1080004c 	andi	r2,r2,1
 10029e0:	103ffb26 	beq	r2,zero,10029d0 <__alt_data_end+0xff8029d0>

	GraphicsX1Reg = x1;
 10029e4:	00a10034 	movhi	r2,33792
 10029e8:	10800084 	addi	r2,r2,2
 10029ec:	e0fffc17 	ldw	r3,-16(fp)
 10029f0:	10c0000d 	sth	r3,0(r2)
	GraphicsX2Reg = x2;
 10029f4:	00a10034 	movhi	r2,33792
 10029f8:	10800184 	addi	r2,r2,6
 10029fc:	e0fffd17 	ldw	r3,-12(fp)
 1002a00:	10c0000d 	sth	r3,0(r2)
	GraphicsY1Reg = y;
 1002a04:	00a10034 	movhi	r2,33792
 1002a08:	10800104 	addi	r2,r2,4
 1002a0c:	e0fffe17 	ldw	r3,-8(fp)
 1002a10:	10c0000d 	sth	r3,0(r2)
	GraphicsColourReg = Colour;
 1002a14:	00a10034 	movhi	r2,33792
 1002a18:	10800384 	addi	r2,r2,14
 1002a1c:	e0ffff17 	ldw	r3,-4(fp)
 1002a20:	10c0000d 	sth	r3,0(r2)
	GraphicsCommandReg = DrawHLine;
 1002a24:	00a10034 	movhi	r2,33792
 1002a28:	00c00044 	movi	r3,1
 1002a2c:	10c0000d 	sth	r3,0(r2)
}
 1002a30:	e037883a 	mov	sp,fp
 1002a34:	df000017 	ldw	fp,0(sp)
 1002a38:	dec00104 	addi	sp,sp,4
 1002a3c:	f800283a 	ret

01002a40 <DrawVerticalLine>:

void DrawVerticalLine(int y1, int y2, int x, int Colour)
{
 1002a40:	defffb04 	addi	sp,sp,-20
 1002a44:	df000415 	stw	fp,16(sp)
 1002a48:	df000404 	addi	fp,sp,16
 1002a4c:	e13ffc15 	stw	r4,-16(fp)
 1002a50:	e17ffd15 	stw	r5,-12(fp)
 1002a54:	e1bffe15 	stw	r6,-8(fp)
 1002a58:	e1ffff15 	stw	r7,-4(fp)
	WAIT_FOR_GRAPHICS;
 1002a5c:	0001883a 	nop
 1002a60:	00a10034 	movhi	r2,33792
 1002a64:	1080000b 	ldhu	r2,0(r2)
 1002a68:	10bfffcc 	andi	r2,r2,65535
 1002a6c:	1080004c 	andi	r2,r2,1
 1002a70:	103ffb26 	beq	r2,zero,1002a60 <__alt_data_end+0xff802a60>

	GraphicsY1Reg = y1;
 1002a74:	00a10034 	movhi	r2,33792
 1002a78:	10800104 	addi	r2,r2,4
 1002a7c:	e0fffc17 	ldw	r3,-16(fp)
 1002a80:	10c0000d 	sth	r3,0(r2)
	GraphicsY2Reg = y2;
 1002a84:	00a10034 	movhi	r2,33792
 1002a88:	10800204 	addi	r2,r2,8
 1002a8c:	e0fffd17 	ldw	r3,-12(fp)
 1002a90:	10c0000d 	sth	r3,0(r2)
	GraphicsX1Reg = x;
 1002a94:	00a10034 	movhi	r2,33792
 1002a98:	10800084 	addi	r2,r2,2
 1002a9c:	e0fffe17 	ldw	r3,-8(fp)
 1002aa0:	10c0000d 	sth	r3,0(r2)
	GraphicsColourReg = Colour;
 1002aa4:	00a10034 	movhi	r2,33792
 1002aa8:	10800384 	addi	r2,r2,14
 1002aac:	e0ffff17 	ldw	r3,-4(fp)
 1002ab0:	10c0000d 	sth	r3,0(r2)
	GraphicsCommandReg = DrawVLine;
 1002ab4:	00a10034 	movhi	r2,33792
 1002ab8:	00c00084 	movi	r3,2
 1002abc:	10c0000d 	sth	r3,0(r2)
}
 1002ac0:	e037883a 	mov	sp,fp
 1002ac4:	df000017 	ldw	fp,0(sp)
 1002ac8:	dec00104 	addi	sp,sp,4
 1002acc:	f800283a 	ret

01002ad0 <DrawBresenhamLine>:

void DrawBresenhamLine(int x1, int x2, int y1, int y2, int Colour)
{
 1002ad0:	defffb04 	addi	sp,sp,-20
 1002ad4:	df000415 	stw	fp,16(sp)
 1002ad8:	df000404 	addi	fp,sp,16
 1002adc:	e13ffc15 	stw	r4,-16(fp)
 1002ae0:	e17ffd15 	stw	r5,-12(fp)
 1002ae4:	e1bffe15 	stw	r6,-8(fp)
 1002ae8:	e1ffff15 	stw	r7,-4(fp)
	WAIT_FOR_GRAPHICS;
 1002aec:	0001883a 	nop
 1002af0:	00a10034 	movhi	r2,33792
 1002af4:	1080000b 	ldhu	r2,0(r2)
 1002af8:	10bfffcc 	andi	r2,r2,65535
 1002afc:	1080004c 	andi	r2,r2,1
 1002b00:	103ffb26 	beq	r2,zero,1002af0 <__alt_data_end+0xff802af0>

	GraphicsX1Reg = x1;
 1002b04:	00a10034 	movhi	r2,33792
 1002b08:	10800084 	addi	r2,r2,2
 1002b0c:	e0fffc17 	ldw	r3,-16(fp)
 1002b10:	10c0000d 	sth	r3,0(r2)
	GraphicsX2Reg = x2;
 1002b14:	00a10034 	movhi	r2,33792
 1002b18:	10800184 	addi	r2,r2,6
 1002b1c:	e0fffd17 	ldw	r3,-12(fp)
 1002b20:	10c0000d 	sth	r3,0(r2)
	GraphicsY1Reg = y1;
 1002b24:	00a10034 	movhi	r2,33792
 1002b28:	10800104 	addi	r2,r2,4
 1002b2c:	e0fffe17 	ldw	r3,-8(fp)
 1002b30:	10c0000d 	sth	r3,0(r2)
	GraphicsY2Reg = y2;
 1002b34:	00a10034 	movhi	r2,33792
 1002b38:	10800204 	addi	r2,r2,8
 1002b3c:	e0ffff17 	ldw	r3,-4(fp)
 1002b40:	10c0000d 	sth	r3,0(r2)
	GraphicsColourReg = Colour;
 1002b44:	00a10034 	movhi	r2,33792
 1002b48:	10800384 	addi	r2,r2,14
 1002b4c:	e0c00117 	ldw	r3,4(fp)
 1002b50:	10c0000d 	sth	r3,0(r2)
	GraphicsCommandReg = DrawLine;
 1002b54:	00a10034 	movhi	r2,33792
 1002b58:	00c000c4 	movi	r3,3
 1002b5c:	10c0000d 	sth	r3,0(r2)
}
 1002b60:	e037883a 	mov	sp,fp
 1002b64:	df000017 	ldw	fp,0(sp)
 1002b68:	dec00104 	addi	sp,sp,4
 1002b6c:	f800283a 	ret

01002b70 <DrawString1>:

void DrawString1(int x, int y, int colour, int background, char* string, int erase){
 1002b70:	defff704 	addi	sp,sp,-36
 1002b74:	dfc00815 	stw	ra,32(sp)
 1002b78:	df000715 	stw	fp,28(sp)
 1002b7c:	df000704 	addi	fp,sp,28
 1002b80:	e13ffc15 	stw	r4,-16(fp)
 1002b84:	e17ffd15 	stw	r5,-12(fp)
 1002b88:	e1bffe15 	stw	r6,-8(fp)
 1002b8c:	e1ffff15 	stw	r7,-4(fp)
	int i;
	for (i = 0; string[i] != '\0'; ++i){
 1002b90:	e03ffb15 	stw	zero,-20(fp)
 1002b94:	00001506 	br	1002bec <DrawString1+0x7c>
		OutGraphicsCharFont1(x, y, colour, background, string[i], erase);
 1002b98:	e0bffb17 	ldw	r2,-20(fp)
 1002b9c:	e0c00217 	ldw	r3,8(fp)
 1002ba0:	1885883a 	add	r2,r3,r2
 1002ba4:	10800003 	ldbu	r2,0(r2)
 1002ba8:	10803fcc 	andi	r2,r2,255
 1002bac:	1080201c 	xori	r2,r2,128
 1002bb0:	10bfe004 	addi	r2,r2,-128
 1002bb4:	d8800015 	stw	r2,0(sp)
 1002bb8:	e0800317 	ldw	r2,12(fp)
 1002bbc:	d8800115 	stw	r2,4(sp)
 1002bc0:	e13ffc17 	ldw	r4,-16(fp)
 1002bc4:	e17ffd17 	ldw	r5,-12(fp)
 1002bc8:	e1bffe17 	ldw	r6,-8(fp)
 1002bcc:	e1ffff17 	ldw	r7,-4(fp)
 1002bd0:	10004500 	call	1000450 <OutGraphicsCharFont1>
		x += 10;
 1002bd4:	e0bffc17 	ldw	r2,-16(fp)
 1002bd8:	10800284 	addi	r2,r2,10
 1002bdc:	e0bffc15 	stw	r2,-16(fp)
	GraphicsCommandReg = DrawLine;
}

void DrawString1(int x, int y, int colour, int background, char* string, int erase){
	int i;
	for (i = 0; string[i] != '\0'; ++i){
 1002be0:	e0bffb17 	ldw	r2,-20(fp)
 1002be4:	10800044 	addi	r2,r2,1
 1002be8:	e0bffb15 	stw	r2,-20(fp)
 1002bec:	e0bffb17 	ldw	r2,-20(fp)
 1002bf0:	e0c00217 	ldw	r3,8(fp)
 1002bf4:	1885883a 	add	r2,r3,r2
 1002bf8:	10800003 	ldbu	r2,0(r2)
 1002bfc:	10803fcc 	andi	r2,r2,255
 1002c00:	1080201c 	xori	r2,r2,128
 1002c04:	10bfe004 	addi	r2,r2,-128
 1002c08:	103fe31e 	bne	r2,zero,1002b98 <__alt_data_end+0xff802b98>
		OutGraphicsCharFont1(x, y, colour, background, string[i], erase);
		x += 10;
	}
}
 1002c0c:	e037883a 	mov	sp,fp
 1002c10:	dfc00117 	ldw	ra,4(sp)
 1002c14:	df000017 	ldw	fp,0(sp)
 1002c18:	dec00204 	addi	sp,sp,8
 1002c1c:	f800283a 	ret

01002c20 <DrawString2>:

void DrawString2(int x, int y, int colour, int background, char* string, int erase){
 1002c20:	defff704 	addi	sp,sp,-36
 1002c24:	dfc00815 	stw	ra,32(sp)
 1002c28:	df000715 	stw	fp,28(sp)
 1002c2c:	df000704 	addi	fp,sp,28
 1002c30:	e13ffc15 	stw	r4,-16(fp)
 1002c34:	e17ffd15 	stw	r5,-12(fp)
 1002c38:	e1bffe15 	stw	r6,-8(fp)
 1002c3c:	e1ffff15 	stw	r7,-4(fp)
	int i;
	for (i = 0; string[i] != '\0'; ++i){
 1002c40:	e03ffb15 	stw	zero,-20(fp)
 1002c44:	00001506 	br	1002c9c <DrawString2+0x7c>
		OutGraphicsCharFont2(x, y, colour, background, string[i], erase);
 1002c48:	e0bffb17 	ldw	r2,-20(fp)
 1002c4c:	e0c00217 	ldw	r3,8(fp)
 1002c50:	1885883a 	add	r2,r3,r2
 1002c54:	10800003 	ldbu	r2,0(r2)
 1002c58:	10803fcc 	andi	r2,r2,255
 1002c5c:	1080201c 	xori	r2,r2,128
 1002c60:	10bfe004 	addi	r2,r2,-128
 1002c64:	d8800015 	stw	r2,0(sp)
 1002c68:	e0800317 	ldw	r2,12(fp)
 1002c6c:	d8800115 	stw	r2,4(sp)
 1002c70:	e13ffc17 	ldw	r4,-16(fp)
 1002c74:	e17ffd17 	ldw	r5,-12(fp)
 1002c78:	e1bffe17 	ldw	r6,-8(fp)
 1002c7c:	e1ffff17 	ldw	r7,-4(fp)
 1002c80:	10004b80 	call	10004b8 <OutGraphicsCharFont2>
		x += 14;
 1002c84:	e0bffc17 	ldw	r2,-16(fp)
 1002c88:	10800384 	addi	r2,r2,14
 1002c8c:	e0bffc15 	stw	r2,-16(fp)
	}
}

void DrawString2(int x, int y, int colour, int background, char* string, int erase){
	int i;
	for (i = 0; string[i] != '\0'; ++i){
 1002c90:	e0bffb17 	ldw	r2,-20(fp)
 1002c94:	10800044 	addi	r2,r2,1
 1002c98:	e0bffb15 	stw	r2,-20(fp)
 1002c9c:	e0bffb17 	ldw	r2,-20(fp)
 1002ca0:	e0c00217 	ldw	r3,8(fp)
 1002ca4:	1885883a 	add	r2,r3,r2
 1002ca8:	10800003 	ldbu	r2,0(r2)
 1002cac:	10803fcc 	andi	r2,r2,255
 1002cb0:	1080201c 	xori	r2,r2,128
 1002cb4:	10bfe004 	addi	r2,r2,-128
 1002cb8:	103fe31e 	bne	r2,zero,1002c48 <__alt_data_end+0xff802c48>
		OutGraphicsCharFont2(x, y, colour, background, string[i], erase);
		x += 14;
	}
}
 1002cbc:	e037883a 	mov	sp,fp
 1002cc0:	dfc00117 	ldw	ra,4(sp)
 1002cc4:	df000017 	ldw	fp,0(sp)
 1002cc8:	dec00204 	addi	sp,sp,8
 1002ccc:	f800283a 	ret

01002cd0 <DrawRectangle>:

void DrawRectangle(int x1, int x2, int y1, int y2, int colour){
 1002cd0:	defffa04 	addi	sp,sp,-24
 1002cd4:	dfc00515 	stw	ra,20(sp)
 1002cd8:	df000415 	stw	fp,16(sp)
 1002cdc:	df000404 	addi	fp,sp,16
 1002ce0:	e13ffc15 	stw	r4,-16(fp)
 1002ce4:	e17ffd15 	stw	r5,-12(fp)
 1002ce8:	e1bffe15 	stw	r6,-8(fp)
 1002cec:	e1ffff15 	stw	r7,-4(fp)
	DrawHorizontalLine(x1, x2, y1, colour);
 1002cf0:	e13ffc17 	ldw	r4,-16(fp)
 1002cf4:	e17ffd17 	ldw	r5,-12(fp)
 1002cf8:	e1bffe17 	ldw	r6,-8(fp)
 1002cfc:	e1c00217 	ldw	r7,8(fp)
 1002d00:	10029b00 	call	10029b0 <DrawHorizontalLine>
	DrawHorizontalLine(x1, x2, y2, colour);
 1002d04:	e13ffc17 	ldw	r4,-16(fp)
 1002d08:	e17ffd17 	ldw	r5,-12(fp)
 1002d0c:	e1bfff17 	ldw	r6,-4(fp)
 1002d10:	e1c00217 	ldw	r7,8(fp)
 1002d14:	10029b00 	call	10029b0 <DrawHorizontalLine>
	DrawVerticalLine(y1, y2, x1, colour);
 1002d18:	e13ffe17 	ldw	r4,-8(fp)
 1002d1c:	e17fff17 	ldw	r5,-4(fp)
 1002d20:	e1bffc17 	ldw	r6,-16(fp)
 1002d24:	e1c00217 	ldw	r7,8(fp)
 1002d28:	1002a400 	call	1002a40 <DrawVerticalLine>
	DrawVerticalLine(y1, y2, x2, colour);
 1002d2c:	e13ffe17 	ldw	r4,-8(fp)
 1002d30:	e17fff17 	ldw	r5,-4(fp)
 1002d34:	e1bffd17 	ldw	r6,-12(fp)
 1002d38:	e1c00217 	ldw	r7,8(fp)
 1002d3c:	1002a400 	call	1002a40 <DrawVerticalLine>
}
 1002d40:	e037883a 	mov	sp,fp
 1002d44:	dfc00117 	ldw	ra,4(sp)
 1002d48:	df000017 	ldw	fp,0(sp)
 1002d4c:	dec00204 	addi	sp,sp,8
 1002d50:	f800283a 	ret

01002d54 <DrawFilledRectangle>:

void DrawFilledRectangle(int x1, int x2, int y1, int y2, int colour){
 1002d54:	defffb04 	addi	sp,sp,-20
 1002d58:	df000415 	stw	fp,16(sp)
 1002d5c:	df000404 	addi	fp,sp,16
 1002d60:	e13ffc15 	stw	r4,-16(fp)
 1002d64:	e17ffd15 	stw	r5,-12(fp)
 1002d68:	e1bffe15 	stw	r6,-8(fp)
 1002d6c:	e1ffff15 	stw	r7,-4(fp)
	WAIT_FOR_GRAPHICS;
 1002d70:	0001883a 	nop
 1002d74:	00a10034 	movhi	r2,33792
 1002d78:	1080000b 	ldhu	r2,0(r2)
 1002d7c:	10bfffcc 	andi	r2,r2,65535
 1002d80:	1080004c 	andi	r2,r2,1
 1002d84:	103ffb26 	beq	r2,zero,1002d74 <__alt_data_end+0xff802d74>
	GraphicsX1Reg = x1;
 1002d88:	00a10034 	movhi	r2,33792
 1002d8c:	10800084 	addi	r2,r2,2
 1002d90:	e0fffc17 	ldw	r3,-16(fp)
 1002d94:	10c0000d 	sth	r3,0(r2)
	GraphicsX2Reg = x2;
 1002d98:	00a10034 	movhi	r2,33792
 1002d9c:	10800184 	addi	r2,r2,6
 1002da0:	e0fffd17 	ldw	r3,-12(fp)
 1002da4:	10c0000d 	sth	r3,0(r2)
	GraphicsY1Reg = y1;
 1002da8:	00a10034 	movhi	r2,33792
 1002dac:	10800104 	addi	r2,r2,4
 1002db0:	e0fffe17 	ldw	r3,-8(fp)
 1002db4:	10c0000d 	sth	r3,0(r2)
	GraphicsY2Reg = y2;
 1002db8:	00a10034 	movhi	r2,33792
 1002dbc:	10800204 	addi	r2,r2,8
 1002dc0:	e0ffff17 	ldw	r3,-4(fp)
 1002dc4:	10c0000d 	sth	r3,0(r2)
	GraphicsColourReg = colour;
 1002dc8:	00a10034 	movhi	r2,33792
 1002dcc:	10800384 	addi	r2,r2,14
 1002dd0:	e0c00117 	ldw	r3,4(fp)
 1002dd4:	10c0000d 	sth	r3,0(r2)
	GraphicsCommandReg = DrawFilledRect;
 1002dd8:	00a10034 	movhi	r2,33792
 1002ddc:	00c00104 	movi	r3,4
 1002de0:	10c0000d 	sth	r3,0(r2)
}
 1002de4:	e037883a 	mov	sp,fp
 1002de8:	df000017 	ldw	fp,0(sp)
 1002dec:	dec00104 	addi	sp,sp,4
 1002df0:	f800283a 	ret

01002df4 <DrawBresenhamCircle>:

void DrawBresenhamCircle(int x1, int y1, int radius, int colour){
 1002df4:	defffb04 	addi	sp,sp,-20
 1002df8:	df000415 	stw	fp,16(sp)
 1002dfc:	df000404 	addi	fp,sp,16
 1002e00:	e13ffc15 	stw	r4,-16(fp)
 1002e04:	e17ffd15 	stw	r5,-12(fp)
 1002e08:	e1bffe15 	stw	r6,-8(fp)
 1002e0c:	e1ffff15 	stw	r7,-4(fp)
	WAIT_FOR_GRAPHICS;
 1002e10:	0001883a 	nop
 1002e14:	00a10034 	movhi	r2,33792
 1002e18:	1080000b 	ldhu	r2,0(r2)
 1002e1c:	10bfffcc 	andi	r2,r2,65535
 1002e20:	1080004c 	andi	r2,r2,1
 1002e24:	103ffb26 	beq	r2,zero,1002e14 <__alt_data_end+0xff802e14>
	GraphicsX1Reg = x1;
 1002e28:	00a10034 	movhi	r2,33792
 1002e2c:	10800084 	addi	r2,r2,2
 1002e30:	e0fffc17 	ldw	r3,-16(fp)
 1002e34:	10c0000d 	sth	r3,0(r2)
	GraphicsY1Reg = y1;
 1002e38:	00a10034 	movhi	r2,33792
 1002e3c:	10800104 	addi	r2,r2,4
 1002e40:	e0fffd17 	ldw	r3,-12(fp)
 1002e44:	10c0000d 	sth	r3,0(r2)
	GraphicsX2Reg = radius;
 1002e48:	00a10034 	movhi	r2,33792
 1002e4c:	10800184 	addi	r2,r2,6
 1002e50:	e0fffe17 	ldw	r3,-8(fp)
 1002e54:	10c0000d 	sth	r3,0(r2)
	GraphicsColourReg = colour;
 1002e58:	00a10034 	movhi	r2,33792
 1002e5c:	10800384 	addi	r2,r2,14
 1002e60:	e0ffff17 	ldw	r3,-4(fp)
 1002e64:	10c0000d 	sth	r3,0(r2)
	GraphicsCommandReg = DrawCircle;
 1002e68:	00a10034 	movhi	r2,33792
 1002e6c:	00c00144 	movi	r3,5
 1002e70:	10c0000d 	sth	r3,0(r2)
}
 1002e74:	e037883a 	mov	sp,fp
 1002e78:	df000017 	ldw	fp,0(sp)
 1002e7c:	dec00104 	addi	sp,sp,4
 1002e80:	f800283a 	ret

01002e84 <MapToColour>:

int MapToColour(int r, int g, int b){
 1002e84:	defff804 	addi	sp,sp,-32
 1002e88:	dfc00715 	stw	ra,28(sp)
 1002e8c:	df000615 	stw	fp,24(sp)
 1002e90:	df000604 	addi	fp,sp,24
 1002e94:	e13ffd15 	stw	r4,-12(fp)
 1002e98:	e17ffe15 	stw	r5,-8(fp)
 1002e9c:	e1bfff15 	stw	r6,-4(fp)
	int r2 = ((r + ColourDiff / 2) / ColourDiff) * ColoursInRGB * ColoursInRGB;
 1002ea0:	e0bffd17 	ldw	r2,-12(fp)
 1002ea4:	10800ac4 	addi	r2,r2,43
 1002ea8:	1009883a 	mov	r4,r2
 1002eac:	01401584 	movi	r5,86
 1002eb0:	10041c80 	call	10041c8 <__divsi3>
 1002eb4:	1004913a 	slli	r2,r2,4
 1002eb8:	e0bffa15 	stw	r2,-24(fp)
	int g2 = ((g + ColourDiff / 2) / ColourDiff) * ColoursInRGB;
 1002ebc:	e0bffe17 	ldw	r2,-8(fp)
 1002ec0:	10800ac4 	addi	r2,r2,43
 1002ec4:	1009883a 	mov	r4,r2
 1002ec8:	01401584 	movi	r5,86
 1002ecc:	10041c80 	call	10041c8 <__divsi3>
 1002ed0:	1085883a 	add	r2,r2,r2
 1002ed4:	1085883a 	add	r2,r2,r2
 1002ed8:	e0bffb15 	stw	r2,-20(fp)
	int b2 = ((b + ColourDiff / 2) / ColourDiff);
 1002edc:	e0bfff17 	ldw	r2,-4(fp)
 1002ee0:	10800ac4 	addi	r2,r2,43
 1002ee4:	1009883a 	mov	r4,r2
 1002ee8:	01401584 	movi	r5,86
 1002eec:	10041c80 	call	10041c8 <__divsi3>
 1002ef0:	e0bffc15 	stw	r2,-16(fp)
	return r2 + g2 + b2 + CustomColorIndex;
 1002ef4:	e0fffa17 	ldw	r3,-24(fp)
 1002ef8:	e0bffb17 	ldw	r2,-20(fp)
 1002efc:	1887883a 	add	r3,r3,r2
 1002f00:	e0bffc17 	ldw	r2,-16(fp)
 1002f04:	1885883a 	add	r2,r3,r2
 1002f08:	108025c4 	addi	r2,r2,151
}
 1002f0c:	e037883a 	mov	sp,fp
 1002f10:	dfc00117 	ldw	ra,4(sp)
 1002f14:	df000017 	ldw	fp,0(sp)
 1002f18:	dec00204 	addi	sp,sp,8
 1002f1c:	f800283a 	ret

01002f20 <GetClosetColour>:

int GetClosetColour(int r, int g, int b){
 1002f20:	defff504 	addi	sp,sp,-44
 1002f24:	df000a15 	stw	fp,40(sp)
 1002f28:	df000a04 	addi	fp,sp,40
 1002f2c:	e13ffd15 	stw	r4,-12(fp)
 1002f30:	e17ffe15 	stw	r5,-8(fp)
 1002f34:	e1bfff15 	stw	r6,-4(fp)
	Colour c = 0;
 1002f38:	e03ff615 	stw	zero,-40(fp)
	int minDiff = 256 * 3;
 1002f3c:	0080c004 	movi	r2,768
 1002f40:	e0bff715 	stw	r2,-36(fp)
	Colour minC = 0;
 1002f44:	e03ff815 	stw	zero,-32(fp)
	for (c = BLACK; c <= WHITE_REPEAT; ++c){
 1002f48:	e03ff615 	stw	zero,-40(fp)
 1002f4c:	00003e06 	br	1003048 <GetClosetColour+0x128>
		int currR = ColourPalletteData[c] >> 16;
 1002f50:	008040b4 	movhi	r2,258
 1002f54:	10854404 	addi	r2,r2,5392
 1002f58:	e0fff617 	ldw	r3,-40(fp)
 1002f5c:	18c7883a 	add	r3,r3,r3
 1002f60:	18c7883a 	add	r3,r3,r3
 1002f64:	10c5883a 	add	r2,r2,r3
 1002f68:	10800017 	ldw	r2,0(r2)
 1002f6c:	1004d43a 	srli	r2,r2,16
 1002f70:	e0bff915 	stw	r2,-28(fp)
		int currG = (ColourPalletteData[c] & 0x00FF00) >> 8;
 1002f74:	008040b4 	movhi	r2,258
 1002f78:	10854404 	addi	r2,r2,5392
 1002f7c:	e0fff617 	ldw	r3,-40(fp)
 1002f80:	18c7883a 	add	r3,r3,r3
 1002f84:	18c7883a 	add	r3,r3,r3
 1002f88:	10c5883a 	add	r2,r2,r3
 1002f8c:	10800017 	ldw	r2,0(r2)
 1002f90:	10bfc00c 	andi	r2,r2,65280
 1002f94:	1004d23a 	srli	r2,r2,8
 1002f98:	e0bffa15 	stw	r2,-24(fp)
		int currB = ColourPalletteData[c] & 0x0000FF;
 1002f9c:	008040b4 	movhi	r2,258
 1002fa0:	10854404 	addi	r2,r2,5392
 1002fa4:	e0fff617 	ldw	r3,-40(fp)
 1002fa8:	18c7883a 	add	r3,r3,r3
 1002fac:	18c7883a 	add	r3,r3,r3
 1002fb0:	10c5883a 	add	r2,r2,r3
 1002fb4:	10800017 	ldw	r2,0(r2)
 1002fb8:	10803fcc 	andi	r2,r2,255
 1002fbc:	e0bffb15 	stw	r2,-20(fp)
		int currDiff = abs(r - currR) + abs(g - currG) + abs(b - currB);
 1002fc0:	e0fffd17 	ldw	r3,-12(fp)
 1002fc4:	e0bff917 	ldw	r2,-28(fp)
 1002fc8:	1885c83a 	sub	r2,r3,r2
 1002fcc:	1000010e 	bge	r2,zero,1002fd4 <GetClosetColour+0xb4>
 1002fd0:	0085c83a 	sub	r2,zero,r2
 1002fd4:	1009883a 	mov	r4,r2
 1002fd8:	e0fffe17 	ldw	r3,-8(fp)
 1002fdc:	e0bffa17 	ldw	r2,-24(fp)
 1002fe0:	1885c83a 	sub	r2,r3,r2
 1002fe4:	1000010e 	bge	r2,zero,1002fec <GetClosetColour+0xcc>
 1002fe8:	0085c83a 	sub	r2,zero,r2
 1002fec:	2087883a 	add	r3,r4,r2
 1002ff0:	e13fff17 	ldw	r4,-4(fp)
 1002ff4:	e0bffb17 	ldw	r2,-20(fp)
 1002ff8:	2085c83a 	sub	r2,r4,r2
 1002ffc:	1000010e 	bge	r2,zero,1003004 <GetClosetColour+0xe4>
 1003000:	0085c83a 	sub	r2,zero,r2
 1003004:	1885883a 	add	r2,r3,r2
 1003008:	e0bffc15 	stw	r2,-16(fp)
		if (currDiff < minDiff){
 100300c:	e0fffc17 	ldw	r3,-16(fp)
 1003010:	e0bff717 	ldw	r2,-36(fp)
 1003014:	1880040e 	bge	r3,r2,1003028 <GetClosetColour+0x108>
			minDiff = currDiff;
 1003018:	e0bffc17 	ldw	r2,-16(fp)
 100301c:	e0bff715 	stw	r2,-36(fp)
			minC = c;
 1003020:	e0bff617 	ldw	r2,-40(fp)
 1003024:	e0bff815 	stw	r2,-32(fp)
		}
		if (minDiff <= 70){
 1003028:	e0bff717 	ldw	r2,-36(fp)
 100302c:	108011c8 	cmpgei	r2,r2,71
 1003030:	1000021e 	bne	r2,zero,100303c <GetClosetColour+0x11c>
			return minC;
 1003034:	e0bff817 	ldw	r2,-32(fp)
 1003038:	00000706 	br	1003058 <GetClosetColour+0x138>

int GetClosetColour(int r, int g, int b){
	Colour c = 0;
	int minDiff = 256 * 3;
	Colour minC = 0;
	for (c = BLACK; c <= WHITE_REPEAT; ++c){
 100303c:	e0bff617 	ldw	r2,-40(fp)
 1003040:	10800044 	addi	r2,r2,1
 1003044:	e0bff615 	stw	r2,-40(fp)
 1003048:	e0bff617 	ldw	r2,-40(fp)
 100304c:	108025f0 	cmpltui	r2,r2,151
 1003050:	103fbf1e 	bne	r2,zero,1002f50 <__alt_data_end+0xff802f50>
		if (minDiff <= 70){
			return minC;
		}
	}

	return minC;
 1003054:	e0bff817 	ldw	r2,-32(fp)
}
 1003058:	e037883a 	mov	sp,fp
 100305c:	df000017 	ldw	fp,0(sp)
 1003060:	dec00104 	addi	sp,sp,4
 1003064:	f800283a 	ret

01003068 <DrawMap>:

// Draws a map from a 24-bit bitmap where the lower left is at (x,y) and option to scale the image (stretch)
void DrawMap(char *fileName, int x, int y, int length, int width, int scale){
 1003068:	deffef04 	addi	sp,sp,-68
 100306c:	dfc01015 	stw	ra,64(sp)
 1003070:	df000f15 	stw	fp,60(sp)
 1003074:	df000f04 	addi	fp,sp,60
 1003078:	e13ffc15 	stw	r4,-16(fp)
 100307c:	e17ffd15 	stw	r5,-12(fp)
 1003080:	e1bffe15 	stw	r6,-8(fp)
 1003084:	e1ffff15 	stw	r7,-4(fp)
	 // super-simplified BMP read algorithm to pull out RGB data
	 // read image for coloring scheme
	 //int image[400*400][3]; // first number here is 1024 pixels in my image, 3 is for RGB values
	 FILE *streamIn;
	 streamIn = fopen(fileName, "r");
 1003088:	e13ffc17 	ldw	r4,-16(fp)
 100308c:	014040f4 	movhi	r5,259
 1003090:	29707604 	addi	r5,r5,-15912
 1003094:	10076640 	call	1007664 <fopen>
 1003098:	e0bff615 	stw	r2,-40(fp)
	 if (streamIn == (FILE *)0){
 100309c:	e0bff617 	ldw	r2,-40(fp)
 10030a0:	1000051e 	bne	r2,zero,10030b8 <DrawMap+0x50>
	   perror("File opening error ocurred. Exiting program.\n");
 10030a4:	010040f4 	movhi	r4,259
 10030a8:	21307704 	addi	r4,r4,-15908
 10030ac:	10090f40 	call	10090f4 <perror>
	   exit(0);
 10030b0:	0009883a 	mov	r4,zero
 10030b4:	1006d240 	call	1006d24 <exit>
	 }

	 int byte;
	 int i;
	 for(i=0; i<54; i++) byte = getc(streamIn);  // strip out BMP header
 10030b8:	e03ff115 	stw	zero,-60(fp)
 10030bc:	00000606 	br	10030d8 <DrawMap+0x70>
 10030c0:	e13ff617 	ldw	r4,-40(fp)
 10030c4:	10083e40 	call	10083e4 <getc>
 10030c8:	e0bff715 	stw	r2,-36(fp)
 10030cc:	e0bff117 	ldw	r2,-60(fp)
 10030d0:	10800044 	addi	r2,r2,1
 10030d4:	e0bff115 	stw	r2,-60(fp)
 10030d8:	e0bff117 	ldw	r2,-60(fp)
 10030dc:	10800d90 	cmplti	r2,r2,54
 10030e0:	103ff71e 	bne	r2,zero,10030c0 <__alt_data_end+0xff8030c0>

	 int currX = x;
 10030e4:	e0bffd17 	ldw	r2,-12(fp)
 10030e8:	e0bff215 	stw	r2,-56(fp)
	 int currY = y;
 10030ec:	e0bffe17 	ldw	r2,-8(fp)
 10030f0:	e0bff315 	stw	r2,-52(fp)

	 for (i=0; i < length*width; i++){    // foreach pixel
 10030f4:	e03ff115 	stw	zero,-60(fp)
 10030f8:	00003c06 	br	10031ec <DrawMap+0x184>
	    int b = fgetc(streamIn);  // use BMP 24bit with no alpha channel
 10030fc:	e13ff617 	ldw	r4,-40(fp)
 1003100:	10071380 	call	1007138 <fgetc>
 1003104:	e0bff815 	stw	r2,-32(fp)
	    int g = fgetc(streamIn);  // BMP uses BGR but we want RGB, grab byte-by-byte
 1003108:	e13ff617 	ldw	r4,-40(fp)
 100310c:	10071380 	call	1007138 <fgetc>
 1003110:	e0bff915 	stw	r2,-28(fp)
	    int r = fgetc(streamIn);  // reverse-order array indexing fixes RGB issue...
 1003114:	e13ff617 	ldw	r4,-40(fp)
 1003118:	10071380 	call	1007138 <fgetc>
 100311c:	e0bffa15 	stw	r2,-24(fp)

	    Colour c = GetClosetColour(r, g, b);
 1003120:	e13ffa17 	ldw	r4,-24(fp)
 1003124:	e17ff917 	ldw	r5,-28(fp)
 1003128:	e1bff817 	ldw	r6,-32(fp)
 100312c:	1002f200 	call	1002f20 <GetClosetColour>
 1003130:	e0bffb15 	stw	r2,-20(fp)
	    //printf("C: %x, Pixel %d : [%d,%d,%d]\n", ColourPalletteData[c], i+1,r,g,b);

	    if (i % length == 0){
 1003134:	e0bff117 	ldw	r2,-60(fp)
 1003138:	1009883a 	mov	r4,r2
 100313c:	e17fff17 	ldw	r5,-4(fp)
 1003140:	100421c0 	call	100421c <__modsi3>
 1003144:	1000071e 	bne	r2,zero,1003164 <DrawMap+0xfc>
	    	currX = x;
 1003148:	e0bffd17 	ldw	r2,-12(fp)
 100314c:	e0bff215 	stw	r2,-56(fp)
	    	currY -= scale;
 1003150:	e0fff317 	ldw	r3,-52(fp)
 1003154:	e0800317 	ldw	r2,12(fp)
 1003158:	1885c83a 	sub	r2,r3,r2
 100315c:	e0bff315 	stw	r2,-52(fp)
 1003160:	00000406 	br	1003174 <DrawMap+0x10c>
	    }
	    else{
	    	currX += scale;
 1003164:	e0fff217 	ldw	r3,-56(fp)
 1003168:	e0800317 	ldw	r2,12(fp)
 100316c:	1885883a 	add	r2,r3,r2
 1003170:	e0bff215 	stw	r2,-56(fp)
	    }

	    int scaleX;
	    int scaleY;
	    for (scaleY = currY; scaleY > currY - scale; --scaleY){
 1003174:	e0bff317 	ldw	r2,-52(fp)
 1003178:	e0bff515 	stw	r2,-44(fp)
 100317c:	00001306 	br	10031cc <DrawMap+0x164>
	    	for (scaleX = currX; scaleX < currX + scale; ++scaleX){
 1003180:	e0bff217 	ldw	r2,-56(fp)
 1003184:	e0bff415 	stw	r2,-48(fp)
 1003188:	00000806 	br	10031ac <DrawMap+0x144>
	    		WriteAPixel(scaleX, scaleY, c);
 100318c:	e0bffb17 	ldw	r2,-20(fp)
 1003190:	e13ff417 	ldw	r4,-48(fp)
 1003194:	e17ff517 	ldw	r5,-44(fp)
 1003198:	100d883a 	mov	r6,r2
 100319c:	10028a40 	call	10028a4 <WriteAPixel>
	    }

	    int scaleX;
	    int scaleY;
	    for (scaleY = currY; scaleY > currY - scale; --scaleY){
	    	for (scaleX = currX; scaleX < currX + scale; ++scaleX){
 10031a0:	e0bff417 	ldw	r2,-48(fp)
 10031a4:	10800044 	addi	r2,r2,1
 10031a8:	e0bff415 	stw	r2,-48(fp)
 10031ac:	e0fff217 	ldw	r3,-56(fp)
 10031b0:	e0800317 	ldw	r2,12(fp)
 10031b4:	1885883a 	add	r2,r3,r2
 10031b8:	e0fff417 	ldw	r3,-48(fp)
 10031bc:	18bff316 	blt	r3,r2,100318c <__alt_data_end+0xff80318c>
	    	currX += scale;
	    }

	    int scaleX;
	    int scaleY;
	    for (scaleY = currY; scaleY > currY - scale; --scaleY){
 10031c0:	e0bff517 	ldw	r2,-44(fp)
 10031c4:	10bfffc4 	addi	r2,r2,-1
 10031c8:	e0bff515 	stw	r2,-44(fp)
 10031cc:	e0fff317 	ldw	r3,-52(fp)
 10031d0:	e0800317 	ldw	r2,12(fp)
 10031d4:	1887c83a 	sub	r3,r3,r2
 10031d8:	e0bff517 	ldw	r2,-44(fp)
 10031dc:	18bfe816 	blt	r3,r2,1003180 <__alt_data_end+0xff803180>
	 for(i=0; i<54; i++) byte = getc(streamIn);  // strip out BMP header

	 int currX = x;
	 int currY = y;

	 for (i=0; i < length*width; i++){    // foreach pixel
 10031e0:	e0bff117 	ldw	r2,-60(fp)
 10031e4:	10800044 	addi	r2,r2,1
 10031e8:	e0bff115 	stw	r2,-60(fp)
 10031ec:	e13fff17 	ldw	r4,-4(fp)
 10031f0:	e1400217 	ldw	r5,8(fp)
 10031f4:	10042880 	call	1004288 <__mulsi3>
 10031f8:	1007883a 	mov	r3,r2
 10031fc:	e0bff117 	ldw	r2,-60(fp)
 1003200:	10ffbe16 	blt	r2,r3,10030fc <__alt_data_end+0xff8030fc>
	    		WriteAPixel(scaleX, scaleY, c);
	    	}
	    }
	 }

	 fclose(streamIn);
 1003204:	e13ff617 	ldw	r4,-40(fp)
 1003208:	1006e5c0 	call	1006e5c <fclose>
}
 100320c:	e037883a 	mov	sp,fp
 1003210:	dfc00117 	ldw	ra,4(sp)
 1003214:	df000017 	ldw	fp,0(sp)
 1003218:	dec00204 	addi	sp,sp,8
 100321c:	f800283a 	ret

01003220 <DrawMap2>:

// Same as DrawMap but with a more efficient bitmap decoding implementation
void DrawMap2(char *fileName, int x, int y, int length, int width, int scale){
 1003220:	deffcc04 	addi	sp,sp,-208
 1003224:	dfc03315 	stw	ra,204(sp)
 1003228:	df003215 	stw	fp,200(sp)
 100322c:	ddc03115 	stw	r23,196(sp)
 1003230:	dd803015 	stw	r22,192(sp)
 1003234:	dd402f15 	stw	r21,188(sp)
 1003238:	dd002e15 	stw	r20,184(sp)
 100323c:	dcc02d15 	stw	r19,180(sp)
 1003240:	dc802c15 	stw	r18,176(sp)
 1003244:	dc402b15 	stw	r17,172(sp)
 1003248:	dc002a15 	stw	r16,168(sp)
 100324c:	df003204 	addi	fp,sp,200
 1003250:	e13fe915 	stw	r4,-92(fp)
 1003254:	e17fea15 	stw	r5,-88(fp)
 1003258:	e1bfeb15 	stw	r6,-84(fp)
 100325c:	e1ffec15 	stw	r7,-80(fp)
	 // super-simplified BMP read algorithm to pull out RGB data
	 // read image for coloring scheme
	 //int image[400*400][3]; // first number here is 1024 pixels in my image, 3 is for RGB values
	 FILE *streamIn;
	 streamIn = fopen(fileName, "rb");
 1003260:	e13fe917 	ldw	r4,-92(fp)
 1003264:	014040f4 	movhi	r5,259
 1003268:	29708304 	addi	r5,r5,-15860
 100326c:	10076640 	call	1007664 <fopen>
 1003270:	e0bfd515 	stw	r2,-172(fp)
	 if (streamIn == (FILE *)0){
 1003274:	e0bfd517 	ldw	r2,-172(fp)
 1003278:	1000051e 	bne	r2,zero,1003290 <DrawMap2+0x70>
	   perror("File opening error ocurred. Exiting program.\n");
 100327c:	010040f4 	movhi	r4,259
 1003280:	21307704 	addi	r4,r4,-15908
 1003284:	10090f40 	call	10090f4 <perror>
	   exit(0);
 1003288:	0009883a 	mov	r4,zero
 100328c:	1006d240 	call	1006d24 <exit>
	 }

	 int i;

	 unsigned char info[54];
	 for(i=0; i<54; i++) getc(streamIn);  // strip out BMP header
 1003290:	e03fce15 	stw	zero,-200(fp)
 1003294:	00000506 	br	10032ac <DrawMap2+0x8c>
 1003298:	e13fd517 	ldw	r4,-172(fp)
 100329c:	10083e40 	call	10083e4 <getc>
 10032a0:	e0bfce17 	ldw	r2,-200(fp)
 10032a4:	10800044 	addi	r2,r2,1
 10032a8:	e0bfce15 	stw	r2,-200(fp)
 10032ac:	e0bfce17 	ldw	r2,-200(fp)
 10032b0:	10800d90 	cmplti	r2,r2,54
 10032b4:	103ff81e 	bne	r2,zero,1003298 <__alt_data_end+0xff803298>

	 int row_padded = (length*3 + 3) & (~3);
 10032b8:	e0bfec17 	ldw	r2,-80(fp)
 10032bc:	10c00044 	addi	r3,r2,1
 10032c0:	1805883a 	mov	r2,r3
 10032c4:	1085883a 	add	r2,r2,r2
 10032c8:	10c7883a 	add	r3,r2,r3
 10032cc:	00bfff04 	movi	r2,-4
 10032d0:	1884703a 	and	r2,r3,r2
 10032d4:	e0bfd615 	stw	r2,-168(fp)
	 unsigned char data[width][row_padded];
 10032d8:	e0bfd617 	ldw	r2,-168(fp)
 10032dc:	e0bfed15 	stw	r2,-76(fp)
 10032e0:	e0c00217 	ldw	r3,8(fp)
 10032e4:	e0ffee15 	stw	r3,-72(fp)
 10032e8:	d805883a 	mov	r2,sp
 10032ec:	e0bfef15 	stw	r2,-68(fp)
 10032f0:	e0ffed17 	ldw	r3,-76(fp)
 10032f4:	18bfffc4 	addi	r2,r3,-1
 10032f8:	e0bfd715 	stw	r2,-164(fp)
 10032fc:	e0bfed17 	ldw	r2,-76(fp)
 1003300:	102d883a 	mov	r22,r2
 1003304:	002f883a 	mov	r23,zero
 1003308:	b004d77a 	srli	r2,r22,29
 100330c:	b82a90fa 	slli	r21,r23,3
 1003310:	156ab03a 	or	r21,r2,r21
 1003314:	b02890fa 	slli	r20,r22,3
 1003318:	e53fed17 	ldw	r20,-76(fp)
 100331c:	e0ffee17 	ldw	r3,-72(fp)
 1003320:	18bfffc4 	addi	r2,r3,-1
 1003324:	e0bfd815 	stw	r2,-160(fp)
 1003328:	e0bfed17 	ldw	r2,-76(fp)
 100332c:	e0bff015 	stw	r2,-64(fp)
 1003330:	e03ff115 	stw	zero,-60(fp)
 1003334:	e0bfee17 	ldw	r2,-72(fp)
 1003338:	e0bff215 	stw	r2,-56(fp)
 100333c:	e03ff315 	stw	zero,-52(fp)
 1003340:	e13ff017 	ldw	r4,-64(fp)
 1003344:	e17ff117 	ldw	r5,-60(fp)
 1003348:	e1bff217 	ldw	r6,-56(fp)
 100334c:	e1fff317 	ldw	r7,-52(fp)
 1003350:	10040500 	call	1004050 <__muldi3>
 1003354:	1009883a 	mov	r4,r2
 1003358:	180b883a 	mov	r5,r3
 100335c:	2005883a 	mov	r2,r4
 1003360:	2807883a 	mov	r3,r5
 1003364:	1008d77a 	srli	r4,r2,29
 1003368:	182690fa 	slli	r19,r3,3
 100336c:	24e6b03a 	or	r19,r4,r19
 1003370:	102490fa 	slli	r18,r2,3
 1003374:	e0ffed17 	ldw	r3,-76(fp)
 1003378:	e0bfee17 	ldw	r2,-72(fp)
 100337c:	1809883a 	mov	r4,r3
 1003380:	100b883a 	mov	r5,r2
 1003384:	10042880 	call	1004288 <__mulsi3>
 1003388:	e0bfed17 	ldw	r2,-76(fp)
 100338c:	e0bff415 	stw	r2,-48(fp)
 1003390:	e03ff515 	stw	zero,-44(fp)
 1003394:	e0bfee17 	ldw	r2,-72(fp)
 1003398:	e0bff615 	stw	r2,-40(fp)
 100339c:	e03ff715 	stw	zero,-36(fp)
 10033a0:	e13ff417 	ldw	r4,-48(fp)
 10033a4:	e17ff517 	ldw	r5,-44(fp)
 10033a8:	e1bff617 	ldw	r6,-40(fp)
 10033ac:	e1fff717 	ldw	r7,-36(fp)
 10033b0:	10040500 	call	1004050 <__muldi3>
 10033b4:	1009883a 	mov	r4,r2
 10033b8:	180b883a 	mov	r5,r3
 10033bc:	2005883a 	mov	r2,r4
 10033c0:	2807883a 	mov	r3,r5
 10033c4:	1008d77a 	srli	r4,r2,29
 10033c8:	182290fa 	slli	r17,r3,3
 10033cc:	2462b03a 	or	r17,r4,r17
 10033d0:	102090fa 	slli	r16,r2,3
 10033d4:	e0ffed17 	ldw	r3,-76(fp)
 10033d8:	e0bfee17 	ldw	r2,-72(fp)
 10033dc:	1809883a 	mov	r4,r3
 10033e0:	100b883a 	mov	r5,r2
 10033e4:	10042880 	call	1004288 <__mulsi3>
 10033e8:	108000c4 	addi	r2,r2,3
 10033ec:	1004d0ba 	srli	r2,r2,2
 10033f0:	1085883a 	add	r2,r2,r2
 10033f4:	1085883a 	add	r2,r2,r2
 10033f8:	d8b7c83a 	sub	sp,sp,r2
 10033fc:	d805883a 	mov	r2,sp
 1003400:	1005883a 	mov	r2,r2
 1003404:	e0bfd915 	stw	r2,-156(fp)

	 int row, col;
	 for(row = 0; row < width; ++row){
 1003408:	e03fcf15 	stw	zero,-196(fp)
 100340c:	00001306 	br	100345c <DrawMap2+0x23c>
		 fread(data[width - 1 - row], sizeof(unsigned char), row_padded, streamIn);
 1003410:	e0800217 	ldw	r2,8(fp)
 1003414:	10ffffc4 	addi	r3,r2,-1
 1003418:	e0bfcf17 	ldw	r2,-196(fp)
 100341c:	1885c83a 	sub	r2,r3,r2
 1003420:	a009883a 	mov	r4,r20
 1003424:	100b883a 	mov	r5,r2
 1003428:	10042880 	call	1004288 <__mulsi3>
 100342c:	1007883a 	mov	r3,r2
 1003430:	e0bfd917 	ldw	r2,-156(fp)
 1003434:	10c7883a 	add	r3,r2,r3
 1003438:	e0bfd617 	ldw	r2,-168(fp)
 100343c:	1809883a 	mov	r4,r3
 1003440:	01400044 	movi	r5,1
 1003444:	100d883a 	mov	r6,r2
 1003448:	e1ffd517 	ldw	r7,-172(fp)
 100344c:	10078d00 	call	10078d0 <fread>

	 int row_padded = (length*3 + 3) & (~3);
	 unsigned char data[width][row_padded];

	 int row, col;
	 for(row = 0; row < width; ++row){
 1003450:	e0bfcf17 	ldw	r2,-196(fp)
 1003454:	10800044 	addi	r2,r2,1
 1003458:	e0bfcf15 	stw	r2,-196(fp)
 100345c:	e0ffcf17 	ldw	r3,-196(fp)
 1003460:	e0800217 	ldw	r2,8(fp)
 1003464:	18bfea16 	blt	r3,r2,1003410 <__alt_data_end+0xff803410>
		 fread(data[width - 1 - row], sizeof(unsigned char), row_padded, streamIn);
	 }
	 printf("boom\n");
 1003468:	010040f4 	movhi	r4,259
 100346c:	21308404 	addi	r4,r4,-15856
 1003470:	10092480 	call	1009248 <puts>
	 int currX = x;
 1003474:	e0bfea17 	ldw	r2,-88(fp)
 1003478:	e0bfd115 	stw	r2,-188(fp)
	 int currY = y;
 100347c:	e0bfeb17 	ldw	r2,-84(fp)
 1003480:	e0bfd215 	stw	r2,-184(fp)
	 for(row = 0; row < width; ++row){
 1003484:	e03fcf15 	stw	zero,-196(fp)
 1003488:	00005406 	br	10035dc <DrawMap2+0x3bc>
		 for(col = 0; col < length * 3; col += 3){
 100348c:	e03fd015 	stw	zero,-192(fp)
 1003490:	00004306 	br	10035a0 <DrawMap2+0x380>
			 //printf("Pixel: %d, R:%d, G:%d, B:%d\n", count++, (int)data[row][col], (int)data[row][col + 1], (int)data[row][col + 2]);
			 int c = MapToColour(data[row][col + 2], data[row][col + 1], data[row][col]);
 1003494:	e0bfd017 	ldw	r2,-192(fp)
 1003498:	14000084 	addi	r16,r2,2
 100349c:	e47fd917 	ldw	r17,-156(fp)
 10034a0:	a009883a 	mov	r4,r20
 10034a4:	e17fcf17 	ldw	r5,-196(fp)
 10034a8:	10042880 	call	1004288 <__mulsi3>
 10034ac:	1007883a 	mov	r3,r2
 10034b0:	8c05883a 	add	r2,r17,r16
 10034b4:	10c5883a 	add	r2,r2,r3
 10034b8:	10800003 	ldbu	r2,0(r2)
 10034bc:	14803fcc 	andi	r18,r2,255
 10034c0:	e0bfd017 	ldw	r2,-192(fp)
 10034c4:	14000044 	addi	r16,r2,1
 10034c8:	e47fd917 	ldw	r17,-156(fp)
 10034cc:	a009883a 	mov	r4,r20
 10034d0:	e17fcf17 	ldw	r5,-196(fp)
 10034d4:	10042880 	call	1004288 <__mulsi3>
 10034d8:	1007883a 	mov	r3,r2
 10034dc:	8c05883a 	add	r2,r17,r16
 10034e0:	10c5883a 	add	r2,r2,r3
 10034e4:	10800003 	ldbu	r2,0(r2)
 10034e8:	14403fcc 	andi	r17,r2,255
 10034ec:	e43fd917 	ldw	r16,-156(fp)
 10034f0:	a009883a 	mov	r4,r20
 10034f4:	e17fcf17 	ldw	r5,-196(fp)
 10034f8:	10042880 	call	1004288 <__mulsi3>
 10034fc:	8087883a 	add	r3,r16,r2
 1003500:	e0bfd017 	ldw	r2,-192(fp)
 1003504:	1885883a 	add	r2,r3,r2
 1003508:	10800003 	ldbu	r2,0(r2)
 100350c:	10803fcc 	andi	r2,r2,255
 1003510:	9009883a 	mov	r4,r18
 1003514:	880b883a 	mov	r5,r17
 1003518:	100d883a 	mov	r6,r2
 100351c:	1002e840 	call	1002e84 <MapToColour>
 1003520:	e0bfda15 	stw	r2,-152(fp)

			 int currX2, currY2;
			 for(currY2 = currY; currY2 < currY + scale; ++currY2){
 1003524:	e0bfd217 	ldw	r2,-184(fp)
 1003528:	e0bfd415 	stw	r2,-176(fp)
 100352c:	00001206 	br	1003578 <DrawMap2+0x358>
				 for(currX2 = currX; currX2 < currX + scale; ++currX2){
 1003530:	e0bfd117 	ldw	r2,-188(fp)
 1003534:	e0bfd315 	stw	r2,-180(fp)
 1003538:	00000706 	br	1003558 <DrawMap2+0x338>
					 WriteAPixel(currX2, currY2, c);
 100353c:	e13fd317 	ldw	r4,-180(fp)
 1003540:	e17fd417 	ldw	r5,-176(fp)
 1003544:	e1bfda17 	ldw	r6,-152(fp)
 1003548:	10028a40 	call	10028a4 <WriteAPixel>
			 //printf("Pixel: %d, R:%d, G:%d, B:%d\n", count++, (int)data[row][col], (int)data[row][col + 1], (int)data[row][col + 2]);
			 int c = MapToColour(data[row][col + 2], data[row][col + 1], data[row][col]);

			 int currX2, currY2;
			 for(currY2 = currY; currY2 < currY + scale; ++currY2){
				 for(currX2 = currX; currX2 < currX + scale; ++currX2){
 100354c:	e0bfd317 	ldw	r2,-180(fp)
 1003550:	10800044 	addi	r2,r2,1
 1003554:	e0bfd315 	stw	r2,-180(fp)
 1003558:	e0ffd117 	ldw	r3,-188(fp)
 100355c:	e0800317 	ldw	r2,12(fp)
 1003560:	1885883a 	add	r2,r3,r2
 1003564:	e0ffd317 	ldw	r3,-180(fp)
 1003568:	18bff416 	blt	r3,r2,100353c <__alt_data_end+0xff80353c>
		 for(col = 0; col < length * 3; col += 3){
			 //printf("Pixel: %d, R:%d, G:%d, B:%d\n", count++, (int)data[row][col], (int)data[row][col + 1], (int)data[row][col + 2]);
			 int c = MapToColour(data[row][col + 2], data[row][col + 1], data[row][col]);

			 int currX2, currY2;
			 for(currY2 = currY; currY2 < currY + scale; ++currY2){
 100356c:	e0bfd417 	ldw	r2,-176(fp)
 1003570:	10800044 	addi	r2,r2,1
 1003574:	e0bfd415 	stw	r2,-176(fp)
 1003578:	e0ffd217 	ldw	r3,-184(fp)
 100357c:	e0800317 	ldw	r2,12(fp)
 1003580:	1885883a 	add	r2,r3,r2
 1003584:	e0ffd417 	ldw	r3,-176(fp)
 1003588:	18bfe916 	blt	r3,r2,1003530 <__alt_data_end+0xff803530>
				 for(currX2 = currX; currX2 < currX + scale; ++currX2){
					 WriteAPixel(currX2, currY2, c);
				 }
			 }
			 currX = currX2;
 100358c:	e0bfd317 	ldw	r2,-180(fp)
 1003590:	e0bfd115 	stw	r2,-188(fp)
	 }
	 printf("boom\n");
	 int currX = x;
	 int currY = y;
	 for(row = 0; row < width; ++row){
		 for(col = 0; col < length * 3; col += 3){
 1003594:	e0bfd017 	ldw	r2,-192(fp)
 1003598:	108000c4 	addi	r2,r2,3
 100359c:	e0bfd015 	stw	r2,-192(fp)
 10035a0:	e0ffec17 	ldw	r3,-80(fp)
 10035a4:	1805883a 	mov	r2,r3
 10035a8:	1085883a 	add	r2,r2,r2
 10035ac:	10c5883a 	add	r2,r2,r3
 10035b0:	e0ffd017 	ldw	r3,-192(fp)
 10035b4:	18bfb716 	blt	r3,r2,1003494 <__alt_data_end+0xff803494>
				 }
			 }
			 currX = currX2;
		 }

		 currX = x;
 10035b8:	e0bfea17 	ldw	r2,-88(fp)
 10035bc:	e0bfd115 	stw	r2,-188(fp)
		 currY += scale;
 10035c0:	e0ffd217 	ldw	r3,-184(fp)
 10035c4:	e0800317 	ldw	r2,12(fp)
 10035c8:	1885883a 	add	r2,r3,r2
 10035cc:	e0bfd215 	stw	r2,-184(fp)
		 fread(data[width - 1 - row], sizeof(unsigned char), row_padded, streamIn);
	 }
	 printf("boom\n");
	 int currX = x;
	 int currY = y;
	 for(row = 0; row < width; ++row){
 10035d0:	e0bfcf17 	ldw	r2,-196(fp)
 10035d4:	10800044 	addi	r2,r2,1
 10035d8:	e0bfcf15 	stw	r2,-196(fp)
 10035dc:	e0ffcf17 	ldw	r3,-196(fp)
 10035e0:	e0800217 	ldw	r2,8(fp)
 10035e4:	18bfa916 	blt	r3,r2,100348c <__alt_data_end+0xff80348c>

		 currX = x;
		 currY += scale;
	 }

	 fclose(streamIn);
 10035e8:	e13fd517 	ldw	r4,-172(fp)
 10035ec:	1006e5c0 	call	1006e5c <fclose>
 10035f0:	e6ffef17 	ldw	sp,-68(fp)
}
 10035f4:	e6fff804 	addi	sp,fp,-32
 10035f8:	dfc00917 	ldw	ra,36(sp)
 10035fc:	df000817 	ldw	fp,32(sp)
 1003600:	ddc00717 	ldw	r23,28(sp)
 1003604:	dd800617 	ldw	r22,24(sp)
 1003608:	dd400517 	ldw	r21,20(sp)
 100360c:	dd000417 	ldw	r20,16(sp)
 1003610:	dcc00317 	ldw	r19,12(sp)
 1003614:	dc800217 	ldw	r18,8(sp)
 1003618:	dc400117 	ldw	r17,4(sp)
 100361c:	dc000017 	ldw	r16,0(sp)
 1003620:	dec00a04 	addi	sp,sp,40
 1003624:	f800283a 	ret

01003628 <DrawMap3>:

void DrawMap3(char *fileName, int x, int y, int length, int width, int scale){
 1003628:	deffdb04 	addi	sp,sp,-148
 100362c:	dfc02415 	stw	ra,144(sp)
 1003630:	df002315 	stw	fp,140(sp)
 1003634:	ddc02215 	stw	r23,136(sp)
 1003638:	dd802115 	stw	r22,132(sp)
 100363c:	dd402015 	stw	r21,128(sp)
 1003640:	dd001f15 	stw	r20,124(sp)
 1003644:	dcc01e15 	stw	r19,120(sp)
 1003648:	dc801d15 	stw	r18,116(sp)
 100364c:	dc401c15 	stw	r17,112(sp)
 1003650:	dc001b15 	stw	r16,108(sp)
 1003654:	df002304 	addi	fp,sp,140
 1003658:	e13ff315 	stw	r4,-52(fp)
 100365c:	e17ff415 	stw	r5,-48(fp)
 1003660:	e1bff515 	stw	r6,-44(fp)
 1003664:	e1fff615 	stw	r7,-40(fp)
		 FILE *streamIn;
		 streamIn = fopen(fileName, "rb");
 1003668:	e13ff317 	ldw	r4,-52(fp)
 100366c:	014040f4 	movhi	r5,259
 1003670:	29708304 	addi	r5,r5,-15860
 1003674:	10076640 	call	1007664 <fopen>
 1003678:	e0bfde15 	stw	r2,-136(fp)
		 if (streamIn == (FILE *)0){
 100367c:	e0bfde17 	ldw	r2,-136(fp)
 1003680:	1000051e 	bne	r2,zero,1003698 <DrawMap3+0x70>
		   perror("File opening error ocurred. Exiting program.\n");
 1003684:	010040f4 	movhi	r4,259
 1003688:	21307704 	addi	r4,r4,-15908
 100368c:	10090f40 	call	10090f4 <perror>
		   exit(0);
 1003690:	0009883a 	mov	r4,zero
 1003694:	1006d240 	call	1006d24 <exit>
		 }

		 int i;

		 unsigned char info[54];
		 for(i=0; i<54; i++) getc(streamIn);  // strip out BMP header
 1003698:	e03fdd15 	stw	zero,-140(fp)
 100369c:	00000506 	br	10036b4 <DrawMap3+0x8c>
 10036a0:	e13fde17 	ldw	r4,-136(fp)
 10036a4:	10083e40 	call	10083e4 <getc>
 10036a8:	e0bfdd17 	ldw	r2,-140(fp)
 10036ac:	10800044 	addi	r2,r2,1
 10036b0:	e0bfdd15 	stw	r2,-140(fp)
 10036b4:	e0bfdd17 	ldw	r2,-140(fp)
 10036b8:	10800d90 	cmplti	r2,r2,54
 10036bc:	103ff81e 	bne	r2,zero,10036a0 <__alt_data_end+0xff8036a0>

		 int row_padded = (length*3 + 3) & (~3);
 10036c0:	e0bff617 	ldw	r2,-40(fp)
 10036c4:	10c00044 	addi	r3,r2,1
 10036c8:	1805883a 	mov	r2,r3
 10036cc:	1085883a 	add	r2,r2,r2
 10036d0:	10c7883a 	add	r3,r2,r3
 10036d4:	00bfff04 	movi	r2,-4
 10036d8:	1884703a 	and	r2,r3,r2
 10036dc:	e0bfdf15 	stw	r2,-132(fp)
		 unsigned char data[row_padded * width];
 10036e0:	e13fdf17 	ldw	r4,-132(fp)
 10036e4:	e1400217 	ldw	r5,8(fp)
 10036e8:	10042880 	call	1004288 <__mulsi3>
 10036ec:	d807883a 	mov	r3,sp
 10036f0:	e0fff715 	stw	r3,-36(fp)
 10036f4:	10ffffc4 	addi	r3,r2,-1
 10036f8:	e0ffe015 	stw	r3,-128(fp)
 10036fc:	1007883a 	mov	r3,r2
 1003700:	182d883a 	mov	r22,r3
 1003704:	002f883a 	mov	r23,zero
 1003708:	b006d77a 	srli	r3,r22,29
 100370c:	b82690fa 	slli	r19,r23,3
 1003710:	1ce6b03a 	or	r19,r3,r19
 1003714:	b02490fa 	slli	r18,r22,3
 1003718:	1007883a 	mov	r3,r2
 100371c:	1829883a 	mov	r20,r3
 1003720:	002b883a 	mov	r21,zero
 1003724:	a006d77a 	srli	r3,r20,29
 1003728:	a82290fa 	slli	r17,r21,3
 100372c:	1c62b03a 	or	r17,r3,r17
 1003730:	a02090fa 	slli	r16,r20,3
 1003734:	108000c4 	addi	r2,r2,3
 1003738:	1004d0ba 	srli	r2,r2,2
 100373c:	1085883a 	add	r2,r2,r2
 1003740:	1085883a 	add	r2,r2,r2
 1003744:	d8b7c83a 	sub	sp,sp,r2
 1003748:	d805883a 	mov	r2,sp
 100374c:	1005883a 	mov	r2,r2
 1003750:	e0bfe115 	stw	r2,-124(fp)

		 int row, col, count;
		 row = col = count = 0;
 1003754:	e03fe215 	stw	zero,-120(fp)
 1003758:	e0bfe217 	ldw	r2,-120(fp)
 100375c:	e0bfe315 	stw	r2,-116(fp)
 1003760:	e0bfe317 	ldw	r2,-116(fp)
 1003764:	e0bfe415 	stw	r2,-112(fp)
		 fread(data, sizeof(unsigned char), row_padded * width, streamIn);
 1003768:	e43fe117 	ldw	r16,-124(fp)
 100376c:	e13fdf17 	ldw	r4,-132(fp)
 1003770:	e1400217 	ldw	r5,8(fp)
 1003774:	10042880 	call	1004288 <__mulsi3>
 1003778:	8009883a 	mov	r4,r16
 100377c:	01400044 	movi	r5,1
 1003780:	100d883a 	mov	r6,r2
 1003784:	e1ffde17 	ldw	r7,-136(fp)
 1003788:	10078d00 	call	10078d0 <fread>

		 fclose(streamIn);
 100378c:	e13fde17 	ldw	r4,-136(fp)
 1003790:	1006e5c0 	call	1006e5c <fclose>
 1003794:	e6fff717 	ldw	sp,-36(fp)
}
 1003798:	e6fff804 	addi	sp,fp,-32
 100379c:	dfc00917 	ldw	ra,36(sp)
 10037a0:	df000817 	ldw	fp,32(sp)
 10037a4:	ddc00717 	ldw	r23,28(sp)
 10037a8:	dd800617 	ldw	r22,24(sp)
 10037ac:	dd400517 	ldw	r21,20(sp)
 10037b0:	dd000417 	ldw	r20,16(sp)
 10037b4:	dcc00317 	ldw	r19,12(sp)
 10037b8:	dc800217 	ldw	r18,8(sp)
 10037bc:	dc400117 	ldw	r17,4(sp)
 10037c0:	dc000017 	ldw	r16,0(sp)
 10037c4:	dec00a04 	addi	sp,sp,40
 10037c8:	f800283a 	ret

010037cc <TestShapes>:

void TestShapes(){
 10037cc:	defffc04 	addi	sp,sp,-16
 10037d0:	dfc00315 	stw	ra,12(sp)
 10037d4:	df000215 	stw	fp,8(sp)
 10037d8:	df000204 	addi	fp,sp,8

	// read the pixels back and make sure we read 2 (RED) to prove it's working
		//for(i = 0; i < 800; i ++)
			//printf("Colour value (i.e. pallette number) = %d at [%d, 100]\n", ReadAPixel(i, 100), i);

	DrawHorizontalLine(0, 800, 400, CYAN);
 10037dc:	0009883a 	mov	r4,zero
 10037e0:	0140c804 	movi	r5,800
 10037e4:	01806404 	movi	r6,400
 10037e8:	01c00184 	movi	r7,6
 10037ec:	10029b00 	call	10029b0 <DrawHorizontalLine>
	DrawVerticalLine(0, 480, 400, MAGENTA);
 10037f0:	0009883a 	mov	r4,zero
 10037f4:	01407804 	movi	r5,480
 10037f8:	01806404 	movi	r6,400
 10037fc:	01c001c4 	movi	r7,7
 1003800:	1002a400 	call	1002a40 <DrawVerticalLine>
	DrawBresenhamLine(0, 400, 0, 300, YELLOW);
 1003804:	00800144 	movi	r2,5
 1003808:	d8800015 	stw	r2,0(sp)
 100380c:	0009883a 	mov	r4,zero
 1003810:	01406404 	movi	r5,400
 1003814:	000d883a 	mov	r6,zero
 1003818:	01c04b04 	movi	r7,300
 100381c:	1002ad00 	call	1002ad0 <DrawBresenhamLine>
	DrawBresenhamLine(0, 400, 300, 0, YELLOW);
 1003820:	00800144 	movi	r2,5
 1003824:	d8800015 	stw	r2,0(sp)
 1003828:	0009883a 	mov	r4,zero
 100382c:	01406404 	movi	r5,400
 1003830:	01804b04 	movi	r6,300
 1003834:	000f883a 	mov	r7,zero
 1003838:	1002ad00 	call	1002ad0 <DrawBresenhamLine>
	DrawBresenhamLine(600, 300, 0, 300, YELLOW);
 100383c:	00800144 	movi	r2,5
 1003840:	d8800015 	stw	r2,0(sp)
 1003844:	01009604 	movi	r4,600
 1003848:	01404b04 	movi	r5,300
 100384c:	000d883a 	mov	r6,zero
 1003850:	01c04b04 	movi	r7,300
 1003854:	1002ad00 	call	1002ad0 <DrawBresenhamLine>
	DrawBresenhamLine(600, 300, 300, 0, YELLOW);
 1003858:	00800144 	movi	r2,5
 100385c:	d8800015 	stw	r2,0(sp)
 1003860:	01009604 	movi	r4,600
 1003864:	01404b04 	movi	r5,300
 1003868:	01804b04 	movi	r6,300
 100386c:	000f883a 	mov	r7,zero
 1003870:	1002ad00 	call	1002ad0 <DrawBresenhamLine>

	DrawString1(300, 150, RED, WHITE, "abcderfg", 1);
 1003874:	008040f4 	movhi	r2,259
 1003878:	10b08604 	addi	r2,r2,-15848
 100387c:	d8800015 	stw	r2,0(sp)
 1003880:	00800044 	movi	r2,1
 1003884:	d8800115 	stw	r2,4(sp)
 1003888:	01004b04 	movi	r4,300
 100388c:	01402584 	movi	r5,150
 1003890:	01800084 	movi	r6,2
 1003894:	01c00044 	movi	r7,1
 1003898:	1002b700 	call	1002b70 <DrawString1>
	DrawString2(400, 150, RED, WHITE, "abcderfg", 0);
 100389c:	008040f4 	movhi	r2,259
 10038a0:	10b08604 	addi	r2,r2,-15848
 10038a4:	d8800015 	stw	r2,0(sp)
 10038a8:	d8000115 	stw	zero,4(sp)
 10038ac:	01006404 	movi	r4,400
 10038b0:	01402584 	movi	r5,150
 10038b4:	01800084 	movi	r6,2
 10038b8:	01c00044 	movi	r7,1
 10038bc:	1002c200 	call	1002c20 <DrawString2>

	DrawRectangle(30, 200, 50, 150, CYAN);
 10038c0:	00800184 	movi	r2,6
 10038c4:	d8800015 	stw	r2,0(sp)
 10038c8:	01000784 	movi	r4,30
 10038cc:	01403204 	movi	r5,200
 10038d0:	01800c84 	movi	r6,50
 10038d4:	01c02584 	movi	r7,150
 10038d8:	1002cd00 	call	1002cd0 <DrawRectangle>

	DrawFilledRectangle(100, 200, 300, 350, 12);
 10038dc:	00800304 	movi	r2,12
 10038e0:	d8800015 	stw	r2,0(sp)
 10038e4:	01001904 	movi	r4,100
 10038e8:	01403204 	movi	r5,200
 10038ec:	01804b04 	movi	r6,300
 10038f0:	01c05784 	movi	r7,350
 10038f4:	1002d540 	call	1002d54 <DrawFilledRectangle>

	DrawBresenhamCircle(400, 400, 50, BLUE);
 10038f8:	01006404 	movi	r4,400
 10038fc:	01406404 	movi	r5,400
 1003900:	01800c84 	movi	r6,50
 1003904:	01c00104 	movi	r7,4
 1003908:	1002df40 	call	1002df4 <DrawBresenhamCircle>
}
 100390c:	e037883a 	mov	sp,fp
 1003910:	dfc00117 	ldw	ra,4(sp)
 1003914:	df000017 	ldw	fp,0(sp)
 1003918:	dec00204 	addi	sp,sp,8
 100391c:	f800283a 	ret

01003920 <ProgramPalette>:
** subroutine to program a hardware (graphics chip) palette number with an RGB value
** e.g. ProgramPalette(RED, 0x00FF0000) ;
****************************************************************************************************/

void ProgramPalette(int PaletteNumber, int RGB)
{
 1003920:	defffd04 	addi	sp,sp,-12
 1003924:	df000215 	stw	fp,8(sp)
 1003928:	df000204 	addi	fp,sp,8
 100392c:	e13ffe15 	stw	r4,-8(fp)
 1003930:	e17fff15 	stw	r5,-4(fp)
    WAIT_FOR_GRAPHICS;
 1003934:	0001883a 	nop
 1003938:	00a10034 	movhi	r2,33792
 100393c:	1080000b 	ldhu	r2,0(r2)
 1003940:	10bfffcc 	andi	r2,r2,65535
 1003944:	1080004c 	andi	r2,r2,1
 1003948:	103ffb26 	beq	r2,zero,1003938 <__alt_data_end+0xff803938>
    GraphicsColourReg = PaletteNumber;
 100394c:	00a10034 	movhi	r2,33792
 1003950:	10800384 	addi	r2,r2,14
 1003954:	e0fffe17 	ldw	r3,-8(fp)
 1003958:	10c0000d 	sth	r3,0(r2)
    GraphicsX1Reg = RGB >> 16   ;          // program red value in ls.8 bit of X1 reg
 100395c:	00a10034 	movhi	r2,33792
 1003960:	10800084 	addi	r2,r2,2
 1003964:	e0ffff17 	ldw	r3,-4(fp)
 1003968:	1807d43a 	srai	r3,r3,16
 100396c:	10c0000d 	sth	r3,0(r2)
    GraphicsY1Reg = RGB ;                	 // program green and blue into 16 bit of Y1 reg
 1003970:	00a10034 	movhi	r2,33792
 1003974:	10800104 	addi	r2,r2,4
 1003978:	e0ffff17 	ldw	r3,-4(fp)
 100397c:	10c0000d 	sth	r3,0(r2)
    GraphicsCommandReg = ProgramPaletteColour;	// issue command
 1003980:	00a10034 	movhi	r2,33792
 1003984:	00c00404 	movi	r3,16
 1003988:	10c0000d 	sth	r3,0(r2)
}
 100398c:	e037883a 	mov	sp,fp
 1003990:	df000017 	ldw	fp,0(sp)
 1003994:	dec00104 	addi	sp,sp,4
 1003998:	f800283a 	ret

0100399c <Wifi_Init>:
#define WifiDongle_Status (*(volatile unsigned char *)(0x84000240))
#define WifiDongle_TxData (*(volatile unsigned char *)(0x84000242))
#define WifiDongle_RxData (*(volatile unsigned char *)(0x84000242))
#define WifiDongle_Baud (*(volatile unsigned char *)(0x84000244))

void Wifi_Init(void) {
 100399c:	deffff04 	addi	sp,sp,-4
 10039a0:	df000015 	stw	fp,0(sp)
 10039a4:	d839883a 	mov	fp,sp
	// Reset
	WifiDongle_Control = 0x03;
 10039a8:	00a10034 	movhi	r2,33792
 10039ac:	10809004 	addi	r2,r2,576
 10039b0:	00c000c4 	movi	r3,3
 10039b4:	10c00005 	stb	r3,0(r2)
	WifiDongle_Control = 0x15;
 10039b8:	00a10034 	movhi	r2,33792
 10039bc:	10809004 	addi	r2,r2,576
 10039c0:	00c00544 	movi	r3,21
 10039c4:	10c00005 	stb	r3,0(r2)
	WifiDongle_Baud = 0x01;
 10039c8:	00a10034 	movhi	r2,33792
 10039cc:	10809104 	addi	r2,r2,580
 10039d0:	00c00044 	movi	r3,1
 10039d4:	10c00005 	stb	r3,0(r2)
}
 10039d8:	e037883a 	mov	sp,fp
 10039dc:	df000017 	ldw	fp,0(sp)
 10039e0:	dec00104 	addi	sp,sp,4
 10039e4:	f800283a 	ret

010039e8 <getcharWifi>:


char getcharWifi(void) {
 10039e8:	deffff04 	addi	sp,sp,-4
 10039ec:	df000015 	stw	fp,0(sp)
 10039f0:	d839883a 	mov	fp,sp
	while((WifiDongle_Status & 0x01) != 0x01) {}
 10039f4:	0001883a 	nop
 10039f8:	00a10034 	movhi	r2,33792
 10039fc:	10809004 	addi	r2,r2,576
 1003a00:	10800003 	ldbu	r2,0(r2)
 1003a04:	10803fcc 	andi	r2,r2,255
 1003a08:	1080004c 	andi	r2,r2,1
 1003a0c:	103ffa26 	beq	r2,zero,10039f8 <__alt_data_end+0xff8039f8>
	return WifiDongle_RxData;
 1003a10:	00a10034 	movhi	r2,33792
 1003a14:	10809084 	addi	r2,r2,578
 1003a18:	10800003 	ldbu	r2,0(r2)
}
 1003a1c:	e037883a 	mov	sp,fp
 1003a20:	df000017 	ldw	fp,0(sp)
 1003a24:	dec00104 	addi	sp,sp,4
 1003a28:	f800283a 	ret

01003a2c <putcharWifi>:

void putcharWifi(char val) {
 1003a2c:	defffe04 	addi	sp,sp,-8
 1003a30:	df000115 	stw	fp,4(sp)
 1003a34:	df000104 	addi	fp,sp,4
 1003a38:	2005883a 	mov	r2,r4
 1003a3c:	e0bfff05 	stb	r2,-4(fp)
	while((WifiDongle_Status & 0x02) != 0x02) {}
 1003a40:	0001883a 	nop
 1003a44:	00a10034 	movhi	r2,33792
 1003a48:	10809004 	addi	r2,r2,576
 1003a4c:	10800003 	ldbu	r2,0(r2)
 1003a50:	10803fcc 	andi	r2,r2,255
 1003a54:	1080008c 	andi	r2,r2,2
 1003a58:	103ffa26 	beq	r2,zero,1003a44 <__alt_data_end+0xff803a44>
	WifiDongle_TxData = val;
 1003a5c:	00a10034 	movhi	r2,33792
 1003a60:	10809084 	addi	r2,r2,578
 1003a64:	e0ffff03 	ldbu	r3,-4(fp)
 1003a68:	10c00005 	stb	r3,0(r2)
}
 1003a6c:	e037883a 	mov	sp,fp
 1003a70:	df000017 	ldw	fp,0(sp)
 1003a74:	dec00104 	addi	sp,sp,4
 1003a78:	f800283a 	ret

01003a7c <WifiWait>:

void WifiWait(void) {
 1003a7c:	defffd04 	addi	sp,sp,-12
 1003a80:	dfc00215 	stw	ra,8(sp)
 1003a84:	df000115 	stw	fp,4(sp)
 1003a88:	df000104 	addi	fp,sp,4
	char val = getcharWifi();
 1003a8c:	10039e80 	call	10039e8 <getcharWifi>
 1003a90:	e0bfff05 	stb	r2,-4(fp)
	while(val != '>') {
 1003a94:	00000506 	br	1003aac <WifiWait+0x30>
		val = getcharWifi();
 1003a98:	10039e80 	call	10039e8 <getcharWifi>
 1003a9c:	e0bfff05 	stb	r2,-4(fp)
		printf("%c", val);
 1003aa0:	e0bfff07 	ldb	r2,-4(fp)
 1003aa4:	1009883a 	mov	r4,r2
 1003aa8:	10091780 	call	1009178 <putchar>
	WifiDongle_TxData = val;
}

void WifiWait(void) {
	char val = getcharWifi();
	while(val != '>') {
 1003aac:	e0bfff07 	ldb	r2,-4(fp)
 1003ab0:	10800f98 	cmpnei	r2,r2,62
 1003ab4:	103ff81e 	bne	r2,zero,1003a98 <__alt_data_end+0xff803a98>
		val = getcharWifi();
		printf("%c", val);
	}

	printf("\n");
 1003ab8:	01000284 	movi	r4,10
 1003abc:	10091780 	call	1009178 <putchar>
}
 1003ac0:	e037883a 	mov	sp,fp
 1003ac4:	dfc00117 	ldw	ra,4(sp)
 1003ac8:	df000017 	ldw	fp,0(sp)
 1003acc:	dec00204 	addi	sp,sp,8
 1003ad0:	f800283a 	ret

01003ad4 <Wifi_SendCommand>:

void Wifi_SendCommand(const char * command) {
 1003ad4:	defffb04 	addi	sp,sp,-20
 1003ad8:	dfc00415 	stw	ra,16(sp)
 1003adc:	df000315 	stw	fp,12(sp)
 1003ae0:	df000304 	addi	fp,sp,12
 1003ae4:	e13fff15 	stw	r4,-4(fp)
	int i;
	int length =strlen(command);
 1003ae8:	e13fff17 	ldw	r4,-4(fp)
 1003aec:	1009edc0 	call	1009edc <strlen>
 1003af0:	e0bffe15 	stw	r2,-8(fp)
	for(i=0; i<length;i++) {
 1003af4:	e03ffd15 	stw	zero,-12(fp)
 1003af8:	00000c06 	br	1003b2c <Wifi_SendCommand+0x58>
		putcharWifi(command[i]);
 1003afc:	e0bffd17 	ldw	r2,-12(fp)
 1003b00:	e0ffff17 	ldw	r3,-4(fp)
 1003b04:	1885883a 	add	r2,r3,r2
 1003b08:	10800003 	ldbu	r2,0(r2)
 1003b0c:	10803fcc 	andi	r2,r2,255
 1003b10:	1080201c 	xori	r2,r2,128
 1003b14:	10bfe004 	addi	r2,r2,-128
 1003b18:	1009883a 	mov	r4,r2
 1003b1c:	1003a2c0 	call	1003a2c <putcharWifi>
}

void Wifi_SendCommand(const char * command) {
	int i;
	int length =strlen(command);
	for(i=0; i<length;i++) {
 1003b20:	e0bffd17 	ldw	r2,-12(fp)
 1003b24:	10800044 	addi	r2,r2,1
 1003b28:	e0bffd15 	stw	r2,-12(fp)
 1003b2c:	e0fffd17 	ldw	r3,-12(fp)
 1003b30:	e0bffe17 	ldw	r2,-8(fp)
 1003b34:	18bff116 	blt	r3,r2,1003afc <__alt_data_end+0xff803afc>
		putcharWifi(command[i]);
	}
}
 1003b38:	e037883a 	mov	sp,fp
 1003b3c:	dfc00117 	ldw	ra,4(sp)
 1003b40:	df000017 	ldw	fp,0(sp)
 1003b44:	dec00204 	addi	sp,sp,8
 1003b48:	f800283a 	ret

01003b4c <fmod>:
 1003b4c:	deffef04 	addi	sp,sp,-68
 1003b50:	dc400a15 	stw	r17,40(sp)
 1003b54:	044040f4 	movhi	r17,259
 1003b58:	dd800f15 	stw	r22,60(sp)
 1003b5c:	dd400e15 	stw	r21,56(sp)
 1003b60:	dd000d15 	stw	r20,52(sp)
 1003b64:	dcc00c15 	stw	r19,48(sp)
 1003b68:	dc800b15 	stw	r18,44(sp)
 1003b6c:	dc000915 	stw	r16,36(sp)
 1003b70:	dfc01015 	stw	ra,64(sp)
 1003b74:	8c7a8e04 	addi	r17,r17,-5576
 1003b78:	202b883a 	mov	r21,r4
 1003b7c:	2829883a 	mov	r20,r5
 1003b80:	3027883a 	mov	r19,r6
 1003b84:	3825883a 	mov	r18,r7
 1003b88:	1003ca40 	call	1003ca4 <__ieee754_fmod>
 1003b8c:	8a000017 	ldw	r8,0(r17)
 1003b90:	1021883a 	mov	r16,r2
 1003b94:	00bfffc4 	movi	r2,-1
 1003b98:	182d883a 	mov	r22,r3
 1003b9c:	40800426 	beq	r8,r2,1003bb0 <fmod+0x64>
 1003ba0:	9809883a 	mov	r4,r19
 1003ba4:	900b883a 	mov	r5,r18
 1003ba8:	1003fd40 	call	1003fd4 <__fpclassifyd>
 1003bac:	10000c1e 	bne	r2,zero,1003be0 <fmod+0x94>
 1003bb0:	8005883a 	mov	r2,r16
 1003bb4:	b007883a 	mov	r3,r22
 1003bb8:	dfc01017 	ldw	ra,64(sp)
 1003bbc:	dd800f17 	ldw	r22,60(sp)
 1003bc0:	dd400e17 	ldw	r21,56(sp)
 1003bc4:	dd000d17 	ldw	r20,52(sp)
 1003bc8:	dcc00c17 	ldw	r19,48(sp)
 1003bcc:	dc800b17 	ldw	r18,44(sp)
 1003bd0:	dc400a17 	ldw	r17,40(sp)
 1003bd4:	dc000917 	ldw	r16,36(sp)
 1003bd8:	dec01104 	addi	sp,sp,68
 1003bdc:	f800283a 	ret
 1003be0:	a809883a 	mov	r4,r21
 1003be4:	a00b883a 	mov	r5,r20
 1003be8:	1003fd40 	call	1003fd4 <__fpclassifyd>
 1003bec:	103ff026 	beq	r2,zero,1003bb0 <__alt_data_end+0xff803bb0>
 1003bf0:	9809883a 	mov	r4,r19
 1003bf4:	900b883a 	mov	r5,r18
 1003bf8:	000d883a 	mov	r6,zero
 1003bfc:	000f883a 	mov	r7,zero
 1003c00:	10060580 	call	1006058 <__eqdf2>
 1003c04:	103fea1e 	bne	r2,zero,1003bb0 <__alt_data_end+0xff803bb0>
 1003c08:	00800044 	movi	r2,1
 1003c0c:	d8800015 	stw	r2,0(sp)
 1003c10:	8c000017 	ldw	r16,0(r17)
 1003c14:	008040f4 	movhi	r2,259
 1003c18:	10b08904 	addi	r2,r2,-15836
 1003c1c:	d8800115 	stw	r2,4(sp)
 1003c20:	dd400215 	stw	r21,8(sp)
 1003c24:	dd000315 	stw	r20,12(sp)
 1003c28:	dcc00415 	stw	r19,16(sp)
 1003c2c:	dc800515 	stw	r18,20(sp)
 1003c30:	d8000815 	stw	zero,32(sp)
 1003c34:	80001126 	beq	r16,zero,1003c7c <fmod+0x130>
 1003c38:	0009883a 	mov	r4,zero
 1003c3c:	000b883a 	mov	r5,zero
 1003c40:	000d883a 	mov	r6,zero
 1003c44:	000f883a 	mov	r7,zero
 1003c48:	10056d80 	call	10056d8 <__divdf3>
 1003c4c:	d8800615 	stw	r2,24(sp)
 1003c50:	d8c00715 	stw	r3,28(sp)
 1003c54:	00800084 	movi	r2,2
 1003c58:	80800a1e 	bne	r16,r2,1003c84 <fmod+0x138>
 1003c5c:	1006d140 	call	1006d14 <__errno>
 1003c60:	00c00844 	movi	r3,33
 1003c64:	10c00015 	stw	r3,0(r2)
 1003c68:	d8800817 	ldw	r2,32(sp)
 1003c6c:	1000091e 	bne	r2,zero,1003c94 <fmod+0x148>
 1003c70:	d8800617 	ldw	r2,24(sp)
 1003c74:	d8c00717 	ldw	r3,28(sp)
 1003c78:	003fcf06 	br	1003bb8 <__alt_data_end+0xff803bb8>
 1003c7c:	dd400615 	stw	r21,24(sp)
 1003c80:	dd000715 	stw	r20,28(sp)
 1003c84:	d809883a 	mov	r4,sp
 1003c88:	10040480 	call	1004048 <matherr>
 1003c8c:	103ff61e 	bne	r2,zero,1003c68 <__alt_data_end+0xff803c68>
 1003c90:	003ff206 	br	1003c5c <__alt_data_end+0xff803c5c>
 1003c94:	1006d140 	call	1006d14 <__errno>
 1003c98:	d8c00817 	ldw	r3,32(sp)
 1003c9c:	10c00015 	stw	r3,0(r2)
 1003ca0:	003ff306 	br	1003c70 <__alt_data_end+0xff803c70>

01003ca4 <__ieee754_fmod>:
 1003ca4:	00e00034 	movhi	r3,32768
 1003ca8:	18ffffc4 	addi	r3,r3,-1
 1003cac:	deffff04 	addi	sp,sp,-4
 1003cb0:	38c6703a 	and	r3,r7,r3
 1003cb4:	dfc00015 	stw	ra,0(sp)
 1003cb8:	1984b03a 	or	r2,r3,r6
 1003cbc:	10001926 	beq	r2,zero,1003d24 <__ieee754_fmod+0x80>
 1003cc0:	2a60002c 	andhi	r9,r5,32768
 1003cc4:	009ffc34 	movhi	r2,32752
 1003cc8:	4954f03a 	xor	r10,r9,r5
 1003ccc:	10bfffc4 	addi	r2,r2,-1
 1003cd0:	12801416 	blt	r2,r10,1003d24 <__ieee754_fmod+0x80>
 1003cd4:	0185c83a 	sub	r2,zero,r6
 1003cd8:	1184b03a 	or	r2,r2,r6
 1003cdc:	1004d7fa 	srli	r2,r2,31
 1003ce0:	02dffc34 	movhi	r11,32752
 1003ce4:	10c4b03a 	or	r2,r2,r3
 1003ce8:	58800e36 	bltu	r11,r2,1003d24 <__ieee754_fmod+0x80>
 1003cec:	2011883a 	mov	r8,r4
 1003cf0:	3019883a 	mov	r12,r6
 1003cf4:	1a801416 	blt	r3,r10,1003d48 <__ieee754_fmod+0xa4>
 1003cf8:	50c01e16 	blt	r10,r3,1003d74 <__ieee754_fmod+0xd0>
 1003cfc:	21801d36 	bltu	r4,r6,1003d74 <__ieee754_fmod+0xd0>
 1003d00:	2180111e 	bne	r4,r6,1003d48 <__ieee754_fmod+0xa4>
 1003d04:	4806d7fa 	srli	r3,r9,31
 1003d08:	180490fa 	slli	r2,r3,3
 1003d0c:	00c040f4 	movhi	r3,259
 1003d10:	18f08b04 	addi	r3,r3,-15828
 1003d14:	1887883a 	add	r3,r3,r2
 1003d18:	18800017 	ldw	r2,0(r3)
 1003d1c:	18c00117 	ldw	r3,4(r3)
 1003d20:	00000606 	br	1003d3c <__ieee754_fmod+0x98>
 1003d24:	10060dc0 	call	10060dc <__muldf3>
 1003d28:	1009883a 	mov	r4,r2
 1003d2c:	180b883a 	mov	r5,r3
 1003d30:	100d883a 	mov	r6,r2
 1003d34:	180f883a 	mov	r7,r3
 1003d38:	10056d80 	call	10056d8 <__divdf3>
 1003d3c:	dfc00017 	ldw	ra,0(sp)
 1003d40:	dec00104 	addi	sp,sp,4
 1003d44:	f800283a 	ret
 1003d48:	00800434 	movhi	r2,16
 1003d4c:	10bfffc4 	addi	r2,r2,-1
 1003d50:	12800b16 	blt	r2,r10,1003d80 <__ieee754_fmod+0xdc>
 1003d54:	5000711e 	bne	r10,zero,1003f1c <__ieee754_fmod+0x278>
 1003d58:	2005883a 	mov	r2,r4
 1003d5c:	017efb44 	movi	r5,-1043
 1003d60:	0100090e 	bge	zero,r4,1003d88 <__ieee754_fmod+0xe4>
 1003d64:	1085883a 	add	r2,r2,r2
 1003d68:	297fffc4 	addi	r5,r5,-1
 1003d6c:	00bffd16 	blt	zero,r2,1003d64 <__alt_data_end+0xff803d64>
 1003d70:	00000506 	br	1003d88 <__ieee754_fmod+0xe4>
 1003d74:	2005883a 	mov	r2,r4
 1003d78:	2807883a 	mov	r3,r5
 1003d7c:	003fef06 	br	1003d3c <__alt_data_end+0xff803d3c>
 1003d80:	500bd53a 	srai	r5,r10,20
 1003d84:	297f0044 	addi	r5,r5,-1023
 1003d88:	00800434 	movhi	r2,16
 1003d8c:	10bfffc4 	addi	r2,r2,-1
 1003d90:	10c00816 	blt	r2,r3,1003db4 <__ieee754_fmod+0x110>
 1003d94:	1800681e 	bne	r3,zero,1003f38 <__ieee754_fmod+0x294>
 1003d98:	3005883a 	mov	r2,r6
 1003d9c:	03befb44 	movi	r14,-1043
 1003da0:	0180060e 	bge	zero,r6,1003dbc <__ieee754_fmod+0x118>
 1003da4:	1085883a 	add	r2,r2,r2
 1003da8:	73bfffc4 	addi	r14,r14,-1
 1003dac:	00bffd16 	blt	zero,r2,1003da4 <__alt_data_end+0xff803da4>
 1003db0:	00000206 	br	1003dbc <__ieee754_fmod+0x118>
 1003db4:	1805d53a 	srai	r2,r3,20
 1003db8:	13bf0044 	addi	r14,r2,-1023
 1003dbc:	00bf0084 	movi	r2,-1022
 1003dc0:	28804b16 	blt	r5,r2,1003ef0 <__ieee754_fmod+0x24c>
 1003dc4:	00800434 	movhi	r2,16
 1003dc8:	10bfffc4 	addi	r2,r2,-1
 1003dcc:	5088703a 	and	r4,r10,r2
 1003dd0:	21000434 	orhi	r4,r4,16
 1003dd4:	00bf0084 	movi	r2,-1022
 1003dd8:	70803c16 	blt	r14,r2,1003ecc <__ieee754_fmod+0x228>
 1003ddc:	00c00434 	movhi	r3,16
 1003de0:	18ffffc4 	addi	r3,r3,-1
 1003de4:	38ce703a 	and	r7,r7,r3
 1003de8:	39800434 	orhi	r6,r7,16
 1003dec:	2b8bc83a 	sub	r5,r5,r14
 1003df0:	00000406 	br	1003e04 <__ieee754_fmod+0x160>
 1003df4:	58001126 	beq	r11,zero,1003e3c <__ieee754_fmod+0x198>
 1003df8:	1091883a 	add	r8,r2,r2
 1003dfc:	6a89883a 	add	r4,r13,r10
 1003e00:	297fffc4 	addi	r5,r5,-1
 1003e04:	4305c83a 	sub	r2,r8,r12
 1003e08:	1014d7fa 	srli	r10,r2,31
 1003e0c:	28001326 	beq	r5,zero,1003e5c <__ieee754_fmod+0x1b8>
 1003e10:	2187c83a 	sub	r3,r4,r6
 1003e14:	4300012e 	bgeu	r8,r12,1003e1c <__ieee754_fmod+0x178>
 1003e18:	18ffffc4 	addi	r3,r3,-1
 1003e1c:	1896b03a 	or	r11,r3,r2
 1003e20:	18db883a 	add	r13,r3,r3
 1003e24:	183ff30e 	bge	r3,zero,1003df4 <__alt_data_end+0xff803df4>
 1003e28:	4004d7fa 	srli	r2,r8,31
 1003e2c:	2109883a 	add	r4,r4,r4
 1003e30:	4211883a 	add	r8,r8,r8
 1003e34:	2089883a 	add	r4,r4,r2
 1003e38:	003ff106 	br	1003e00 <__alt_data_end+0xff803e00>
 1003e3c:	4806d7fa 	srli	r3,r9,31
 1003e40:	008040f4 	movhi	r2,259
 1003e44:	10b08b04 	addi	r2,r2,-15828
 1003e48:	180690fa 	slli	r3,r3,3
 1003e4c:	10c7883a 	add	r3,r2,r3
 1003e50:	18800017 	ldw	r2,0(r3)
 1003e54:	18c00117 	ldw	r3,4(r3)
 1003e58:	003fb806 	br	1003d3c <__alt_data_end+0xff803d3c>
 1003e5c:	218dc83a 	sub	r6,r4,r6
 1003e60:	43002c36 	bltu	r8,r12,1003f14 <__ieee754_fmod+0x270>
 1003e64:	30004c16 	blt	r6,zero,1003f98 <__ieee754_fmod+0x2f4>
 1003e68:	4311c83a 	sub	r8,r8,r12
 1003e6c:	3204b03a 	or	r2,r6,r8
 1003e70:	103ff226 	beq	r2,zero,1003e3c <__alt_data_end+0xff803e3c>
 1003e74:	00c00434 	movhi	r3,16
 1003e78:	18ffffc4 	addi	r3,r3,-1
 1003e7c:	19800616 	blt	r3,r6,1003e98 <__ieee754_fmod+0x1f4>
 1003e80:	4004d7fa 	srli	r2,r8,31
 1003e84:	318d883a 	add	r6,r6,r6
 1003e88:	4211883a 	add	r8,r8,r8
 1003e8c:	308d883a 	add	r6,r6,r2
 1003e90:	73bfffc4 	addi	r14,r14,-1
 1003e94:	19bffa0e 	bge	r3,r6,1003e80 <__alt_data_end+0xff803e80>
 1003e98:	00bf0084 	movi	r2,-1022
 1003e9c:	7080360e 	bge	r14,r2,1003f78 <__ieee754_fmod+0x2d4>
 1003ea0:	1385c83a 	sub	r2,r2,r14
 1003ea4:	00c00504 	movi	r3,20
 1003ea8:	18803d16 	blt	r3,r2,1003fa0 <__ieee754_fmod+0x2fc>
 1003eac:	71010784 	addi	r4,r14,1054
 1003eb0:	4090d83a 	srl	r8,r8,r2
 1003eb4:	3108983a 	sll	r4,r6,r4
 1003eb8:	3087d83a 	sra	r3,r6,r2
 1003ebc:	2208b03a 	or	r4,r4,r8
 1003ec0:	2005883a 	mov	r2,r4
 1003ec4:	1a46b03a 	or	r3,r3,r9
 1003ec8:	003f9c06 	br	1003d3c <__alt_data_end+0xff803d3c>
 1003ecc:	1385c83a 	sub	r2,r2,r14
 1003ed0:	01c007c4 	movi	r7,31
 1003ed4:	38802316 	blt	r7,r2,1003f64 <__ieee754_fmod+0x2c0>
 1003ed8:	71c10784 	addi	r7,r14,1054
 1003edc:	1886983a 	sll	r3,r3,r2
 1003ee0:	31ced83a 	srl	r7,r6,r7
 1003ee4:	3098983a 	sll	r12,r6,r2
 1003ee8:	19ccb03a 	or	r6,r3,r7
 1003eec:	003fbf06 	br	1003dec <__alt_data_end+0xff803dec>
 1003ef0:	1145c83a 	sub	r2,r2,r5
 1003ef4:	020007c4 	movi	r8,31
 1003ef8:	40801516 	blt	r8,r2,1003f50 <__ieee754_fmod+0x2ac>
 1003efc:	2ac10784 	addi	r11,r5,1054
 1003f00:	5094983a 	sll	r10,r10,r2
 1003f04:	22d6d83a 	srl	r11,r4,r11
 1003f08:	2090983a 	sll	r8,r4,r2
 1003f0c:	52c8b03a 	or	r4,r10,r11
 1003f10:	003fb006 	br	1003dd4 <__alt_data_end+0xff803dd4>
 1003f14:	31bfffc4 	addi	r6,r6,-1
 1003f18:	003fd206 	br	1003e64 <__alt_data_end+0xff803e64>
 1003f1c:	500492fa 	slli	r2,r10,11
 1003f20:	017f0084 	movi	r5,-1022
 1003f24:	00bf980e 	bge	zero,r2,1003d88 <__alt_data_end+0xff803d88>
 1003f28:	1085883a 	add	r2,r2,r2
 1003f2c:	297fffc4 	addi	r5,r5,-1
 1003f30:	00bffd16 	blt	zero,r2,1003f28 <__alt_data_end+0xff803f28>
 1003f34:	003f9406 	br	1003d88 <__alt_data_end+0xff803d88>
 1003f38:	180492fa 	slli	r2,r3,11
 1003f3c:	03bf0084 	movi	r14,-1022
 1003f40:	1085883a 	add	r2,r2,r2
 1003f44:	73bfffc4 	addi	r14,r14,-1
 1003f48:	00bffd16 	blt	zero,r2,1003f40 <__alt_data_end+0xff803f40>
 1003f4c:	003f9b06 	br	1003dbc <__alt_data_end+0xff803dbc>
 1003f50:	00bef884 	movi	r2,-1054
 1003f54:	1145c83a 	sub	r2,r2,r5
 1003f58:	2088983a 	sll	r4,r4,r2
 1003f5c:	0011883a 	mov	r8,zero
 1003f60:	003f9c06 	br	1003dd4 <__alt_data_end+0xff803dd4>
 1003f64:	00bef884 	movi	r2,-1054
 1003f68:	1385c83a 	sub	r2,r2,r14
 1003f6c:	308c983a 	sll	r6,r6,r2
 1003f70:	0019883a 	mov	r12,zero
 1003f74:	003f9d06 	br	1003dec <__alt_data_end+0xff803dec>
 1003f78:	71c0ffc4 	addi	r7,r14,1023
 1003f7c:	380e953a 	slli	r7,r7,20
 1003f80:	00fffc34 	movhi	r3,65520
 1003f84:	30c7883a 	add	r3,r6,r3
 1003f88:	1a46b03a 	or	r3,r3,r9
 1003f8c:	4005883a 	mov	r2,r8
 1003f90:	19c6b03a 	or	r3,r3,r7
 1003f94:	003f6906 	br	1003d3c <__alt_data_end+0xff803d3c>
 1003f98:	200d883a 	mov	r6,r4
 1003f9c:	003fb306 	br	1003e6c <__alt_data_end+0xff803e6c>
 1003fa0:	00c007c4 	movi	r3,31
 1003fa4:	18800616 	blt	r3,r2,1003fc0 <__ieee754_fmod+0x31c>
 1003fa8:	71c10784 	addi	r7,r14,1054
 1003fac:	4090d83a 	srl	r8,r8,r2
 1003fb0:	31c4983a 	sll	r2,r6,r7
 1003fb4:	4807883a 	mov	r3,r9
 1003fb8:	1208b03a 	or	r4,r2,r8
 1003fbc:	003fc006 	br	1003ec0 <__alt_data_end+0xff803ec0>
 1003fc0:	00bef884 	movi	r2,-1054
 1003fc4:	1385c83a 	sub	r2,r2,r14
 1003fc8:	3089d83a 	sra	r4,r6,r2
 1003fcc:	4807883a 	mov	r3,r9
 1003fd0:	003fbb06 	br	1003ec0 <__alt_data_end+0xff803ec0>

01003fd4 <__fpclassifyd>:
 1003fd4:	00a00034 	movhi	r2,32768
 1003fd8:	10bfffc4 	addi	r2,r2,-1
 1003fdc:	2884703a 	and	r2,r5,r2
 1003fe0:	10000726 	beq	r2,zero,1004000 <__fpclassifyd+0x2c>
 1003fe4:	00fffc34 	movhi	r3,65520
 1003fe8:	019ff834 	movhi	r6,32736
 1003fec:	28c7883a 	add	r3,r5,r3
 1003ff0:	31bfffc4 	addi	r6,r6,-1
 1003ff4:	30c00536 	bltu	r6,r3,100400c <__fpclassifyd+0x38>
 1003ff8:	00800104 	movi	r2,4
 1003ffc:	f800283a 	ret
 1004000:	2000021e 	bne	r4,zero,100400c <__fpclassifyd+0x38>
 1004004:	00800084 	movi	r2,2
 1004008:	f800283a 	ret
 100400c:	00dffc34 	movhi	r3,32752
 1004010:	019ff834 	movhi	r6,32736
 1004014:	28cb883a 	add	r5,r5,r3
 1004018:	31bfffc4 	addi	r6,r6,-1
 100401c:	317ff62e 	bgeu	r6,r5,1003ff8 <__alt_data_end+0xff803ff8>
 1004020:	01400434 	movhi	r5,16
 1004024:	297fffc4 	addi	r5,r5,-1
 1004028:	28800236 	bltu	r5,r2,1004034 <__fpclassifyd+0x60>
 100402c:	008000c4 	movi	r2,3
 1004030:	f800283a 	ret
 1004034:	10c00226 	beq	r2,r3,1004040 <__fpclassifyd+0x6c>
 1004038:	0005883a 	mov	r2,zero
 100403c:	f800283a 	ret
 1004040:	2005003a 	cmpeq	r2,r4,zero
 1004044:	f800283a 	ret

01004048 <matherr>:
 1004048:	0005883a 	mov	r2,zero
 100404c:	f800283a 	ret

01004050 <__muldi3>:
 1004050:	defff604 	addi	sp,sp,-40
 1004054:	dd800615 	stw	r22,24(sp)
 1004058:	dd400515 	stw	r21,20(sp)
 100405c:	25bfffcc 	andi	r22,r4,65535
 1004060:	357fffcc 	andi	r21,r6,65535
 1004064:	dc400115 	stw	r17,4(sp)
 1004068:	2022d43a 	srli	r17,r4,16
 100406c:	dcc00315 	stw	r19,12(sp)
 1004070:	dc800215 	stw	r18,8(sp)
 1004074:	2027883a 	mov	r19,r4
 1004078:	2825883a 	mov	r18,r5
 100407c:	a809883a 	mov	r4,r21
 1004080:	b00b883a 	mov	r5,r22
 1004084:	dfc00915 	stw	ra,36(sp)
 1004088:	df000815 	stw	fp,32(sp)
 100408c:	ddc00715 	stw	r23,28(sp)
 1004090:	3839883a 	mov	fp,r7
 1004094:	302ed43a 	srli	r23,r6,16
 1004098:	dd000415 	stw	r20,16(sp)
 100409c:	dc000015 	stw	r16,0(sp)
 10040a0:	3029883a 	mov	r20,r6
 10040a4:	10042880 	call	1004288 <__mulsi3>
 10040a8:	a809883a 	mov	r4,r21
 10040ac:	880b883a 	mov	r5,r17
 10040b0:	1021883a 	mov	r16,r2
 10040b4:	10042880 	call	1004288 <__mulsi3>
 10040b8:	880b883a 	mov	r5,r17
 10040bc:	b809883a 	mov	r4,r23
 10040c0:	102b883a 	mov	r21,r2
 10040c4:	10042880 	call	1004288 <__mulsi3>
 10040c8:	b809883a 	mov	r4,r23
 10040cc:	b00b883a 	mov	r5,r22
 10040d0:	1023883a 	mov	r17,r2
 10040d4:	10042880 	call	1004288 <__mulsi3>
 10040d8:	8012d43a 	srli	r9,r16,16
 10040dc:	a885883a 	add	r2,r21,r2
 10040e0:	1251883a 	add	r8,r2,r9
 10040e4:	4540022e 	bgeu	r8,r21,10040f0 <__muldi3+0xa0>
 10040e8:	00800074 	movhi	r2,1
 10040ec:	88a3883a 	add	r17,r17,r2
 10040f0:	4006d43a 	srli	r3,r8,16
 10040f4:	4010943a 	slli	r8,r8,16
 10040f8:	9809883a 	mov	r4,r19
 10040fc:	e00b883a 	mov	r5,fp
 1004100:	843fffcc 	andi	r16,r16,65535
 1004104:	88e3883a 	add	r17,r17,r3
 1004108:	4421883a 	add	r16,r8,r16
 100410c:	10042880 	call	1004288 <__mulsi3>
 1004110:	a009883a 	mov	r4,r20
 1004114:	900b883a 	mov	r5,r18
 1004118:	1027883a 	mov	r19,r2
 100411c:	10042880 	call	1004288 <__mulsi3>
 1004120:	9885883a 	add	r2,r19,r2
 1004124:	1447883a 	add	r3,r2,r17
 1004128:	8005883a 	mov	r2,r16
 100412c:	dfc00917 	ldw	ra,36(sp)
 1004130:	df000817 	ldw	fp,32(sp)
 1004134:	ddc00717 	ldw	r23,28(sp)
 1004138:	dd800617 	ldw	r22,24(sp)
 100413c:	dd400517 	ldw	r21,20(sp)
 1004140:	dd000417 	ldw	r20,16(sp)
 1004144:	dcc00317 	ldw	r19,12(sp)
 1004148:	dc800217 	ldw	r18,8(sp)
 100414c:	dc400117 	ldw	r17,4(sp)
 1004150:	dc000017 	ldw	r16,0(sp)
 1004154:	dec00a04 	addi	sp,sp,40
 1004158:	f800283a 	ret

0100415c <udivmodsi4>:
 100415c:	2900182e 	bgeu	r5,r4,10041c0 <udivmodsi4+0x64>
 1004160:	28001716 	blt	r5,zero,10041c0 <udivmodsi4+0x64>
 1004164:	00800804 	movi	r2,32
 1004168:	00c00044 	movi	r3,1
 100416c:	00000206 	br	1004178 <udivmodsi4+0x1c>
 1004170:	10001126 	beq	r2,zero,10041b8 <udivmodsi4+0x5c>
 1004174:	28000516 	blt	r5,zero,100418c <udivmodsi4+0x30>
 1004178:	294b883a 	add	r5,r5,r5
 100417c:	10bfffc4 	addi	r2,r2,-1
 1004180:	18c7883a 	add	r3,r3,r3
 1004184:	293ffa36 	bltu	r5,r4,1004170 <__alt_data_end+0xff804170>
 1004188:	18000b26 	beq	r3,zero,10041b8 <udivmodsi4+0x5c>
 100418c:	0005883a 	mov	r2,zero
 1004190:	21400236 	bltu	r4,r5,100419c <udivmodsi4+0x40>
 1004194:	2149c83a 	sub	r4,r4,r5
 1004198:	10c4b03a 	or	r2,r2,r3
 100419c:	1806d07a 	srli	r3,r3,1
 10041a0:	280ad07a 	srli	r5,r5,1
 10041a4:	183ffa1e 	bne	r3,zero,1004190 <__alt_data_end+0xff804190>
 10041a8:	3000011e 	bne	r6,zero,10041b0 <udivmodsi4+0x54>
 10041ac:	f800283a 	ret
 10041b0:	2005883a 	mov	r2,r4
 10041b4:	f800283a 	ret
 10041b8:	0005883a 	mov	r2,zero
 10041bc:	003ffa06 	br	10041a8 <__alt_data_end+0xff8041a8>
 10041c0:	00c00044 	movi	r3,1
 10041c4:	003ff106 	br	100418c <__alt_data_end+0xff80418c>

010041c8 <__divsi3>:
 10041c8:	defffe04 	addi	sp,sp,-8
 10041cc:	dfc00115 	stw	ra,4(sp)
 10041d0:	dc000015 	stw	r16,0(sp)
 10041d4:	20000b16 	blt	r4,zero,1004204 <__divsi3+0x3c>
 10041d8:	0021883a 	mov	r16,zero
 10041dc:	28000c16 	blt	r5,zero,1004210 <__divsi3+0x48>
 10041e0:	000d883a 	mov	r6,zero
 10041e4:	100415c0 	call	100415c <udivmodsi4>
 10041e8:	0407c83a 	sub	r3,zero,r16
 10041ec:	1884f03a 	xor	r2,r3,r2
 10041f0:	1405883a 	add	r2,r2,r16
 10041f4:	dfc00117 	ldw	ra,4(sp)
 10041f8:	dc000017 	ldw	r16,0(sp)
 10041fc:	dec00204 	addi	sp,sp,8
 1004200:	f800283a 	ret
 1004204:	0109c83a 	sub	r4,zero,r4
 1004208:	04000044 	movi	r16,1
 100420c:	283ff40e 	bge	r5,zero,10041e0 <__alt_data_end+0xff8041e0>
 1004210:	014bc83a 	sub	r5,zero,r5
 1004214:	8400005c 	xori	r16,r16,1
 1004218:	003ff106 	br	10041e0 <__alt_data_end+0xff8041e0>

0100421c <__modsi3>:
 100421c:	defffd04 	addi	sp,sp,-12
 1004220:	dfc00215 	stw	ra,8(sp)
 1004224:	dc400115 	stw	r17,4(sp)
 1004228:	dc000015 	stw	r16,0(sp)
 100422c:	20000c16 	blt	r4,zero,1004260 <__modsi3+0x44>
 1004230:	0023883a 	mov	r17,zero
 1004234:	0021883a 	mov	r16,zero
 1004238:	28000d16 	blt	r5,zero,1004270 <__modsi3+0x54>
 100423c:	01800044 	movi	r6,1
 1004240:	100415c0 	call	100415c <udivmodsi4>
 1004244:	1404f03a 	xor	r2,r2,r16
 1004248:	8885883a 	add	r2,r17,r2
 100424c:	dfc00217 	ldw	ra,8(sp)
 1004250:	dc400117 	ldw	r17,4(sp)
 1004254:	dc000017 	ldw	r16,0(sp)
 1004258:	dec00304 	addi	sp,sp,12
 100425c:	f800283a 	ret
 1004260:	0109c83a 	sub	r4,zero,r4
 1004264:	04400044 	movi	r17,1
 1004268:	043fffc4 	movi	r16,-1
 100426c:	283ff30e 	bge	r5,zero,100423c <__alt_data_end+0xff80423c>
 1004270:	014bc83a 	sub	r5,zero,r5
 1004274:	003ff106 	br	100423c <__alt_data_end+0xff80423c>

01004278 <__udivsi3>:
 1004278:	000d883a 	mov	r6,zero
 100427c:	100415c1 	jmpi	100415c <udivmodsi4>

01004280 <__umodsi3>:
 1004280:	01800044 	movi	r6,1
 1004284:	100415c1 	jmpi	100415c <udivmodsi4>

01004288 <__mulsi3>:
 1004288:	0005883a 	mov	r2,zero
 100428c:	20000726 	beq	r4,zero,10042ac <__mulsi3+0x24>
 1004290:	20c0004c 	andi	r3,r4,1
 1004294:	2008d07a 	srli	r4,r4,1
 1004298:	18000126 	beq	r3,zero,10042a0 <__mulsi3+0x18>
 100429c:	1145883a 	add	r2,r2,r5
 10042a0:	294b883a 	add	r5,r5,r5
 10042a4:	203ffa1e 	bne	r4,zero,1004290 <__alt_data_end+0xff804290>
 10042a8:	f800283a 	ret
 10042ac:	f800283a 	ret

010042b0 <__addsf3>:
 10042b0:	defffc04 	addi	sp,sp,-16
 10042b4:	2004d7fa 	srli	r2,r4,31
 10042b8:	280ed5fa 	srli	r7,r5,23
 10042bc:	dc000015 	stw	r16,0(sp)
 10042c0:	01802034 	movhi	r6,128
 10042c4:	2020d5fa 	srli	r16,r4,23
 10042c8:	31bfffc4 	addi	r6,r6,-1
 10042cc:	2810d7fa 	srli	r8,r5,31
 10042d0:	3108703a 	and	r4,r6,r4
 10042d4:	dc800215 	stw	r18,8(sp)
 10042d8:	314c703a 	and	r6,r6,r5
 10042dc:	84003fcc 	andi	r16,r16,255
 10042e0:	200690fa 	slli	r3,r4,3
 10042e4:	dfc00315 	stw	ra,12(sp)
 10042e8:	39003fcc 	andi	r4,r7,255
 10042ec:	dc400115 	stw	r17,4(sp)
 10042f0:	14803fcc 	andi	r18,r2,255
 10042f4:	300c90fa 	slli	r6,r6,3
 10042f8:	810bc83a 	sub	r5,r16,r4
 10042fc:	92004826 	beq	r18,r8,1004420 <__addsf3+0x170>
 1004300:	01406c0e 	bge	zero,r5,10044b4 <__addsf3+0x204>
 1004304:	20001e1e 	bne	r4,zero,1004380 <__addsf3+0xd0>
 1004308:	3000611e 	bne	r6,zero,1004490 <__addsf3+0x1e0>
 100430c:	188001cc 	andi	r2,r3,7
 1004310:	10000426 	beq	r2,zero,1004324 <__addsf3+0x74>
 1004314:	190003cc 	andi	r4,r3,15
 1004318:	00800104 	movi	r2,4
 100431c:	20800126 	beq	r4,r2,1004324 <__addsf3+0x74>
 1004320:	18c00104 	addi	r3,r3,4
 1004324:	1901002c 	andhi	r4,r3,1024
 1004328:	9005883a 	mov	r2,r18
 100432c:	20003426 	beq	r4,zero,1004400 <__addsf3+0x150>
 1004330:	81400044 	addi	r5,r16,1
 1004334:	01003fc4 	movi	r4,255
 1004338:	29006926 	beq	r5,r4,10044e0 <__addsf3+0x230>
 100433c:	180691ba 	slli	r3,r3,6
 1004340:	1808d27a 	srli	r4,r3,9
 1004344:	29403fcc 	andi	r5,r5,255
 1004348:	280a95fa 	slli	r5,r5,23
 100434c:	10803fcc 	andi	r2,r2,255
 1004350:	00c02034 	movhi	r3,128
 1004354:	100497fa 	slli	r2,r2,31
 1004358:	18ffffc4 	addi	r3,r3,-1
 100435c:	20c6703a 	and	r3,r4,r3
 1004360:	1946b03a 	or	r3,r3,r5
 1004364:	1884b03a 	or	r2,r3,r2
 1004368:	dfc00317 	ldw	ra,12(sp)
 100436c:	dc800217 	ldw	r18,8(sp)
 1004370:	dc400117 	ldw	r17,4(sp)
 1004374:	dc000017 	ldw	r16,0(sp)
 1004378:	dec00404 	addi	sp,sp,16
 100437c:	f800283a 	ret
 1004380:	00803fc4 	movi	r2,255
 1004384:	80bfe126 	beq	r16,r2,100430c <__alt_data_end+0xff80430c>
 1004388:	31810034 	orhi	r6,r6,1024
 100438c:	008006c4 	movi	r2,27
 1004390:	11405b0e 	bge	r2,r5,1004500 <__addsf3+0x250>
 1004394:	01400044 	movi	r5,1
 1004398:	1947c83a 	sub	r3,r3,r5
 100439c:	1881002c 	andhi	r2,r3,1024
 10043a0:	10001426 	beq	r2,zero,10043f4 <__addsf3+0x144>
 10043a4:	04410034 	movhi	r17,1024
 10043a8:	8c7fffc4 	addi	r17,r17,-1
 10043ac:	1c62703a 	and	r17,r3,r17
 10043b0:	8809883a 	mov	r4,r17
 10043b4:	1006c780 	call	1006c78 <__clzsi2>
 10043b8:	10bffec4 	addi	r2,r2,-5
 10043bc:	88a2983a 	sll	r17,r17,r2
 10043c0:	14004a16 	blt	r2,r16,10044ec <__addsf3+0x23c>
 10043c4:	140bc83a 	sub	r5,r2,r16
 10043c8:	00c007c4 	movi	r3,31
 10043cc:	1947c83a 	sub	r3,r3,r5
 10043d0:	88c6983a 	sll	r3,r17,r3
 10043d4:	29400044 	addi	r5,r5,1
 10043d8:	8962d83a 	srl	r17,r17,r5
 10043dc:	1806c03a 	cmpne	r3,r3,zero
 10043e0:	0021883a 	mov	r16,zero
 10043e4:	1c46b03a 	or	r3,r3,r17
 10043e8:	003fc806 	br	100430c <__alt_data_end+0xff80430c>
 10043ec:	1000e526 	beq	r2,zero,1004784 <__addsf3+0x4d4>
 10043f0:	1007883a 	mov	r3,r2
 10043f4:	188001cc 	andi	r2,r3,7
 10043f8:	103fc61e 	bne	r2,zero,1004314 <__alt_data_end+0xff804314>
 10043fc:	9005883a 	mov	r2,r18
 1004400:	01003fc4 	movi	r4,255
 1004404:	1806d0fa 	srli	r3,r3,3
 1004408:	81001a26 	beq	r16,r4,1004474 <__addsf3+0x1c4>
 100440c:	01002034 	movhi	r4,128
 1004410:	213fffc4 	addi	r4,r4,-1
 1004414:	800b883a 	mov	r5,r16
 1004418:	1908703a 	and	r4,r3,r4
 100441c:	003fc906 	br	1004344 <__alt_data_end+0xff804344>
 1004420:	01403e0e 	bge	zero,r5,100451c <__addsf3+0x26c>
 1004424:	20001e26 	beq	r4,zero,10044a0 <__addsf3+0x1f0>
 1004428:	01003fc4 	movi	r4,255
 100442c:	813fb726 	beq	r16,r4,100430c <__alt_data_end+0xff80430c>
 1004430:	31810034 	orhi	r6,r6,1024
 1004434:	010006c4 	movi	r4,27
 1004438:	2140570e 	bge	r4,r5,1004598 <__addsf3+0x2e8>
 100443c:	01400044 	movi	r5,1
 1004440:	1947883a 	add	r3,r3,r5
 1004444:	1901002c 	andhi	r4,r3,1024
 1004448:	203fea26 	beq	r4,zero,10043f4 <__alt_data_end+0xff8043f4>
 100444c:	84000044 	addi	r16,r16,1
 1004450:	01003fc4 	movi	r4,255
 1004454:	81007526 	beq	r16,r4,100462c <__addsf3+0x37c>
 1004458:	00bf0034 	movhi	r2,64512
 100445c:	10bfffc4 	addi	r2,r2,-1
 1004460:	1900004c 	andi	r4,r3,1
 1004464:	1886703a 	and	r3,r3,r2
 1004468:	1806d07a 	srli	r3,r3,1
 100446c:	1906b03a 	or	r3,r3,r4
 1004470:	003fa606 	br	100430c <__alt_data_end+0xff80430c>
 1004474:	18001a26 	beq	r3,zero,10044e0 <__addsf3+0x230>
 1004478:	19001034 	orhi	r4,r3,64
 100447c:	00c02034 	movhi	r3,128
 1004480:	18ffffc4 	addi	r3,r3,-1
 1004484:	017fffc4 	movi	r5,-1
 1004488:	20c8703a 	and	r4,r4,r3
 100448c:	003fad06 	br	1004344 <__alt_data_end+0xff804344>
 1004490:	297fffc4 	addi	r5,r5,-1
 1004494:	28002c1e 	bne	r5,zero,1004548 <__addsf3+0x298>
 1004498:	1987c83a 	sub	r3,r3,r6
 100449c:	003fbf06 	br	100439c <__alt_data_end+0xff80439c>
 10044a0:	303f9a26 	beq	r6,zero,100430c <__alt_data_end+0xff80430c>
 10044a4:	297fffc4 	addi	r5,r5,-1
 10044a8:	28004b1e 	bne	r5,zero,10045d8 <__addsf3+0x328>
 10044ac:	1987883a 	add	r3,r3,r6
 10044b0:	003fe406 	br	1004444 <__alt_data_end+0xff804444>
 10044b4:	2800271e 	bne	r5,zero,1004554 <__addsf3+0x2a4>
 10044b8:	80800044 	addi	r2,r16,1
 10044bc:	10803fcc 	andi	r2,r2,255
 10044c0:	01000044 	movi	r4,1
 10044c4:	2080520e 	bge	r4,r2,1004610 <__addsf3+0x360>
 10044c8:	19a3c83a 	sub	r17,r3,r6
 10044cc:	8881002c 	andhi	r2,r17,1024
 10044d0:	10002c26 	beq	r2,zero,1004584 <__addsf3+0x2d4>
 10044d4:	30e3c83a 	sub	r17,r6,r3
 10044d8:	4025883a 	mov	r18,r8
 10044dc:	003fb406 	br	10043b0 <__alt_data_end+0xff8043b0>
 10044e0:	017fffc4 	movi	r5,-1
 10044e4:	0009883a 	mov	r4,zero
 10044e8:	003f9606 	br	1004344 <__alt_data_end+0xff804344>
 10044ec:	00ff0034 	movhi	r3,64512
 10044f0:	18ffffc4 	addi	r3,r3,-1
 10044f4:	80a1c83a 	sub	r16,r16,r2
 10044f8:	88c6703a 	and	r3,r17,r3
 10044fc:	003f8306 	br	100430c <__alt_data_end+0xff80430c>
 1004500:	00800804 	movi	r2,32
 1004504:	1145c83a 	sub	r2,r2,r5
 1004508:	3084983a 	sll	r2,r6,r2
 100450c:	314cd83a 	srl	r6,r6,r5
 1004510:	100ac03a 	cmpne	r5,r2,zero
 1004514:	298ab03a 	or	r5,r5,r6
 1004518:	003f9f06 	br	1004398 <__alt_data_end+0xff804398>
 100451c:	2800451e 	bne	r5,zero,1004634 <__addsf3+0x384>
 1004520:	81000044 	addi	r4,r16,1
 1004524:	21c03fcc 	andi	r7,r4,255
 1004528:	01400044 	movi	r5,1
 100452c:	29c02d0e 	bge	r5,r7,10045e4 <__addsf3+0x334>
 1004530:	01403fc4 	movi	r5,255
 1004534:	21403c26 	beq	r4,r5,1004628 <__addsf3+0x378>
 1004538:	30c7883a 	add	r3,r6,r3
 100453c:	1806d07a 	srli	r3,r3,1
 1004540:	2021883a 	mov	r16,r4
 1004544:	003f7106 	br	100430c <__alt_data_end+0xff80430c>
 1004548:	00803fc4 	movi	r2,255
 100454c:	80bf8f1e 	bne	r16,r2,100438c <__alt_data_end+0xff80438c>
 1004550:	003f6e06 	br	100430c <__alt_data_end+0xff80430c>
 1004554:	80001726 	beq	r16,zero,10045b4 <__addsf3+0x304>
 1004558:	00803fc4 	movi	r2,255
 100455c:	20801a26 	beq	r4,r2,10045c8 <__addsf3+0x318>
 1004560:	014bc83a 	sub	r5,zero,r5
 1004564:	18c10034 	orhi	r3,r3,1024
 1004568:	008006c4 	movi	r2,27
 100456c:	1140430e 	bge	r2,r5,100467c <__addsf3+0x3cc>
 1004570:	00c00044 	movi	r3,1
 1004574:	30c7c83a 	sub	r3,r6,r3
 1004578:	2021883a 	mov	r16,r4
 100457c:	4025883a 	mov	r18,r8
 1004580:	003f8606 	br	100439c <__alt_data_end+0xff80439c>
 1004584:	883f8a1e 	bne	r17,zero,10043b0 <__alt_data_end+0xff8043b0>
 1004588:	0007883a 	mov	r3,zero
 100458c:	0005883a 	mov	r2,zero
 1004590:	0021883a 	mov	r16,zero
 1004594:	003f9a06 	br	1004400 <__alt_data_end+0xff804400>
 1004598:	01000804 	movi	r4,32
 100459c:	2149c83a 	sub	r4,r4,r5
 10045a0:	3108983a 	sll	r4,r6,r4
 10045a4:	314cd83a 	srl	r6,r6,r5
 10045a8:	200ac03a 	cmpne	r5,r4,zero
 10045ac:	298ab03a 	or	r5,r5,r6
 10045b0:	003fa306 	br	1004440 <__alt_data_end+0xff804440>
 10045b4:	18000426 	beq	r3,zero,10045c8 <__addsf3+0x318>
 10045b8:	014a303a 	nor	r5,zero,r5
 10045bc:	283fed26 	beq	r5,zero,1004574 <__alt_data_end+0xff804574>
 10045c0:	00803fc4 	movi	r2,255
 10045c4:	20bfe81e 	bne	r4,r2,1004568 <__alt_data_end+0xff804568>
 10045c8:	3007883a 	mov	r3,r6
 10045cc:	2021883a 	mov	r16,r4
 10045d0:	4025883a 	mov	r18,r8
 10045d4:	003f4d06 	br	100430c <__alt_data_end+0xff80430c>
 10045d8:	01003fc4 	movi	r4,255
 10045dc:	813f951e 	bne	r16,r4,1004434 <__alt_data_end+0xff804434>
 10045e0:	003f4a06 	br	100430c <__alt_data_end+0xff80430c>
 10045e4:	8000471e 	bne	r16,zero,1004704 <__addsf3+0x454>
 10045e8:	18006126 	beq	r3,zero,1004770 <__addsf3+0x4c0>
 10045ec:	303f4726 	beq	r6,zero,100430c <__alt_data_end+0xff80430c>
 10045f0:	1987883a 	add	r3,r3,r6
 10045f4:	1881002c 	andhi	r2,r3,1024
 10045f8:	103f7e26 	beq	r2,zero,10043f4 <__alt_data_end+0xff8043f4>
 10045fc:	00bf0034 	movhi	r2,64512
 1004600:	10bfffc4 	addi	r2,r2,-1
 1004604:	2821883a 	mov	r16,r5
 1004608:	1886703a 	and	r3,r3,r2
 100460c:	003f3f06 	br	100430c <__alt_data_end+0xff80430c>
 1004610:	8000141e 	bne	r16,zero,1004664 <__addsf3+0x3b4>
 1004614:	1800311e 	bne	r3,zero,10046dc <__addsf3+0x42c>
 1004618:	30004626 	beq	r6,zero,1004734 <__addsf3+0x484>
 100461c:	3007883a 	mov	r3,r6
 1004620:	4025883a 	mov	r18,r8
 1004624:	003f3906 	br	100430c <__alt_data_end+0xff80430c>
 1004628:	2021883a 	mov	r16,r4
 100462c:	0007883a 	mov	r3,zero
 1004630:	003f7306 	br	1004400 <__alt_data_end+0xff804400>
 1004634:	8000181e 	bne	r16,zero,1004698 <__addsf3+0x3e8>
 1004638:	18002f26 	beq	r3,zero,10046f8 <__addsf3+0x448>
 100463c:	014a303a 	nor	r5,zero,r5
 1004640:	28000526 	beq	r5,zero,1004658 <__addsf3+0x3a8>
 1004644:	01c03fc4 	movi	r7,255
 1004648:	21c02b26 	beq	r4,r7,10046f8 <__addsf3+0x448>
 100464c:	01c006c4 	movi	r7,27
 1004650:	3940400e 	bge	r7,r5,1004754 <__addsf3+0x4a4>
 1004654:	00c00044 	movi	r3,1
 1004658:	1987883a 	add	r3,r3,r6
 100465c:	2021883a 	mov	r16,r4
 1004660:	003f7806 	br	1004444 <__alt_data_end+0xff804444>
 1004664:	1800111e 	bne	r3,zero,10046ac <__addsf3+0x3fc>
 1004668:	30003526 	beq	r6,zero,1004740 <__addsf3+0x490>
 100466c:	3007883a 	mov	r3,r6
 1004670:	4025883a 	mov	r18,r8
 1004674:	04003fc4 	movi	r16,255
 1004678:	003f2406 	br	100430c <__alt_data_end+0xff80430c>
 100467c:	00800804 	movi	r2,32
 1004680:	1145c83a 	sub	r2,r2,r5
 1004684:	1884983a 	sll	r2,r3,r2
 1004688:	194ad83a 	srl	r5,r3,r5
 100468c:	1006c03a 	cmpne	r3,r2,zero
 1004690:	1946b03a 	or	r3,r3,r5
 1004694:	003fb706 	br	1004574 <__alt_data_end+0xff804574>
 1004698:	01c03fc4 	movi	r7,255
 100469c:	21c01626 	beq	r4,r7,10046f8 <__addsf3+0x448>
 10046a0:	014bc83a 	sub	r5,zero,r5
 10046a4:	18c10034 	orhi	r3,r3,1024
 10046a8:	003fe806 	br	100464c <__alt_data_end+0xff80464c>
 10046ac:	30001f26 	beq	r6,zero,100472c <__addsf3+0x47c>
 10046b0:	1806d0fa 	srli	r3,r3,3
 10046b4:	1880102c 	andhi	r2,r3,64
 10046b8:	10000526 	beq	r2,zero,10046d0 <__addsf3+0x420>
 10046bc:	300cd0fa 	srli	r6,r6,3
 10046c0:	3080102c 	andhi	r2,r6,64
 10046c4:	1000021e 	bne	r2,zero,10046d0 <__addsf3+0x420>
 10046c8:	3007883a 	mov	r3,r6
 10046cc:	4025883a 	mov	r18,r8
 10046d0:	180690fa 	slli	r3,r3,3
 10046d4:	04003fc4 	movi	r16,255
 10046d8:	003f0c06 	br	100430c <__alt_data_end+0xff80430c>
 10046dc:	303f0b26 	beq	r6,zero,100430c <__alt_data_end+0xff80430c>
 10046e0:	1985c83a 	sub	r2,r3,r6
 10046e4:	1101002c 	andhi	r4,r2,1024
 10046e8:	203f4026 	beq	r4,zero,10043ec <__alt_data_end+0xff8043ec>
 10046ec:	30c7c83a 	sub	r3,r6,r3
 10046f0:	4025883a 	mov	r18,r8
 10046f4:	003f0506 	br	100430c <__alt_data_end+0xff80430c>
 10046f8:	3007883a 	mov	r3,r6
 10046fc:	2021883a 	mov	r16,r4
 1004700:	003f0206 	br	100430c <__alt_data_end+0xff80430c>
 1004704:	18001c26 	beq	r3,zero,1004778 <__addsf3+0x4c8>
 1004708:	30000826 	beq	r6,zero,100472c <__addsf3+0x47c>
 100470c:	1806d0fa 	srli	r3,r3,3
 1004710:	1880102c 	andhi	r2,r3,64
 1004714:	103fee26 	beq	r2,zero,10046d0 <__alt_data_end+0xff8046d0>
 1004718:	300cd0fa 	srli	r6,r6,3
 100471c:	3080102c 	andhi	r2,r6,64
 1004720:	103feb1e 	bne	r2,zero,10046d0 <__alt_data_end+0xff8046d0>
 1004724:	3007883a 	mov	r3,r6
 1004728:	003fe906 	br	10046d0 <__alt_data_end+0xff8046d0>
 100472c:	04003fc4 	movi	r16,255
 1004730:	003ef606 	br	100430c <__alt_data_end+0xff80430c>
 1004734:	8007883a 	mov	r3,r16
 1004738:	0005883a 	mov	r2,zero
 100473c:	003f3006 	br	1004400 <__alt_data_end+0xff804400>
 1004740:	00c10034 	movhi	r3,1024
 1004744:	0005883a 	mov	r2,zero
 1004748:	18fffe04 	addi	r3,r3,-8
 100474c:	04003fc4 	movi	r16,255
 1004750:	003f2b06 	br	1004400 <__alt_data_end+0xff804400>
 1004754:	01c00804 	movi	r7,32
 1004758:	394fc83a 	sub	r7,r7,r5
 100475c:	19ce983a 	sll	r7,r3,r7
 1004760:	194ad83a 	srl	r5,r3,r5
 1004764:	3806c03a 	cmpne	r3,r7,zero
 1004768:	1946b03a 	or	r3,r3,r5
 100476c:	003fba06 	br	1004658 <__alt_data_end+0xff804658>
 1004770:	3007883a 	mov	r3,r6
 1004774:	003ee506 	br	100430c <__alt_data_end+0xff80430c>
 1004778:	3007883a 	mov	r3,r6
 100477c:	04003fc4 	movi	r16,255
 1004780:	003ee206 	br	100430c <__alt_data_end+0xff80430c>
 1004784:	0007883a 	mov	r3,zero
 1004788:	0005883a 	mov	r2,zero
 100478c:	003f1c06 	br	1004400 <__alt_data_end+0xff804400>

01004790 <__divsf3>:
 1004790:	defff504 	addi	sp,sp,-44
 1004794:	dd000515 	stw	r20,20(sp)
 1004798:	2028d5fa 	srli	r20,r4,23
 100479c:	dd400615 	stw	r21,24(sp)
 10047a0:	202ad7fa 	srli	r21,r4,31
 10047a4:	00c02034 	movhi	r3,128
 10047a8:	dcc00415 	stw	r19,16(sp)
 10047ac:	dc800315 	stw	r18,12(sp)
 10047b0:	18ffffc4 	addi	r3,r3,-1
 10047b4:	dfc00a15 	stw	ra,40(sp)
 10047b8:	df000915 	stw	fp,36(sp)
 10047bc:	ddc00815 	stw	r23,32(sp)
 10047c0:	dd800715 	stw	r22,28(sp)
 10047c4:	dc400215 	stw	r17,8(sp)
 10047c8:	dc000115 	stw	r16,4(sp)
 10047cc:	a5003fcc 	andi	r20,r20,255
 10047d0:	1924703a 	and	r18,r3,r4
 10047d4:	acc03fcc 	andi	r19,r21,255
 10047d8:	a0004d26 	beq	r20,zero,1004910 <__divsf3+0x180>
 10047dc:	00803fc4 	movi	r2,255
 10047e0:	a0802e26 	beq	r20,r2,100489c <__divsf3+0x10c>
 10047e4:	91002034 	orhi	r4,r18,128
 10047e8:	202490fa 	slli	r18,r4,3
 10047ec:	a53fe044 	addi	r20,r20,-127
 10047f0:	0021883a 	mov	r16,zero
 10047f4:	002f883a 	mov	r23,zero
 10047f8:	2804d5fa 	srli	r2,r5,23
 10047fc:	282cd7fa 	srli	r22,r5,31
 1004800:	00c02034 	movhi	r3,128
 1004804:	18ffffc4 	addi	r3,r3,-1
 1004808:	10803fcc 	andi	r2,r2,255
 100480c:	1962703a 	and	r17,r3,r5
 1004810:	b7003fcc 	andi	fp,r22,255
 1004814:	10004526 	beq	r2,zero,100492c <__divsf3+0x19c>
 1004818:	00c03fc4 	movi	r3,255
 100481c:	10c04026 	beq	r2,r3,1004920 <__divsf3+0x190>
 1004820:	88c02034 	orhi	r3,r17,128
 1004824:	182290fa 	slli	r17,r3,3
 1004828:	10bfe044 	addi	r2,r2,-127
 100482c:	0009883a 	mov	r4,zero
 1004830:	2420b03a 	or	r16,r4,r16
 1004834:	802090ba 	slli	r16,r16,2
 1004838:	01c04034 	movhi	r7,256
 100483c:	39d21704 	addi	r7,r7,18524
 1004840:	81e1883a 	add	r16,r16,r7
 1004844:	80c00017 	ldw	r3,0(r16)
 1004848:	ad8af03a 	xor	r5,r21,r22
 100484c:	280d883a 	mov	r6,r5
 1004850:	a085c83a 	sub	r2,r20,r2
 1004854:	29403fcc 	andi	r5,r5,255
 1004858:	1800683a 	jmp	r3
 100485c:	01004a68 	cmpgeui	r4,zero,297
 1004860:	01004a10 	cmplti	r4,zero,296
 1004864:	01004a34 	movhi	r4,296
 1004868:	010049fc 	xorhi	r4,zero,295
 100486c:	01004a34 	movhi	r4,296
 1004870:	010048ac 	andhi	r4,zero,290
 1004874:	01004a34 	movhi	r4,296
 1004878:	010049fc 	xorhi	r4,zero,295
 100487c:	01004a10 	cmplti	r4,zero,296
 1004880:	01004a10 	cmplti	r4,zero,296
 1004884:	010048ac 	andhi	r4,zero,290
 1004888:	010049fc 	xorhi	r4,zero,295
 100488c:	01004b00 	call	1004b0 <__alt_mem_onchip_memory2_0+0x1004b0>
 1004890:	01004b00 	call	1004b0 <__alt_mem_onchip_memory2_0+0x1004b0>
 1004894:	01004b00 	call	1004b0 <__alt_mem_onchip_memory2_0+0x1004b0>
 1004898:	01004a40 	call	1004a4 <__alt_mem_onchip_memory2_0+0x1004a4>
 100489c:	9000531e 	bne	r18,zero,10049ec <__divsf3+0x25c>
 10048a0:	04000204 	movi	r16,8
 10048a4:	05c00084 	movi	r23,2
 10048a8:	003fd306 	br	10047f8 <__alt_data_end+0xff8047f8>
 10048ac:	00c02034 	movhi	r3,128
 10048b0:	000d883a 	mov	r6,zero
 10048b4:	18ffffc4 	addi	r3,r3,-1
 10048b8:	013fffc4 	movi	r4,-1
 10048bc:	21003fcc 	andi	r4,r4,255
 10048c0:	200895fa 	slli	r4,r4,23
 10048c4:	30803fcc 	andi	r2,r6,255
 10048c8:	01802034 	movhi	r6,128
 10048cc:	31bfffc4 	addi	r6,r6,-1
 10048d0:	100497fa 	slli	r2,r2,31
 10048d4:	1986703a 	and	r3,r3,r6
 10048d8:	1906b03a 	or	r3,r3,r4
 10048dc:	1884b03a 	or	r2,r3,r2
 10048e0:	dfc00a17 	ldw	ra,40(sp)
 10048e4:	df000917 	ldw	fp,36(sp)
 10048e8:	ddc00817 	ldw	r23,32(sp)
 10048ec:	dd800717 	ldw	r22,28(sp)
 10048f0:	dd400617 	ldw	r21,24(sp)
 10048f4:	dd000517 	ldw	r20,20(sp)
 10048f8:	dcc00417 	ldw	r19,16(sp)
 10048fc:	dc800317 	ldw	r18,12(sp)
 1004900:	dc400217 	ldw	r17,8(sp)
 1004904:	dc000117 	ldw	r16,4(sp)
 1004908:	dec00b04 	addi	sp,sp,44
 100490c:	f800283a 	ret
 1004910:	90002b1e 	bne	r18,zero,10049c0 <__divsf3+0x230>
 1004914:	04000104 	movi	r16,4
 1004918:	05c00044 	movi	r23,1
